
bomb:     file format elf64-x86-64


Disassembly of section .init:

0000000000003000 <_init>:
    3000:	f3 0f 1e fa          	endbr64 
    3004:	48 83 ec 08          	sub    $0x8,%rsp
    3008:	48 8b 05 d9 4f 00 00 	mov    0x4fd9(%rip),%rax        # 7fe8 <__gmon_start__>
    300f:	48 85 c0             	test   %rax,%rax
    3012:	74 02                	je     3016 <_init+0x16>
    3014:	ff d0                	callq  *%rax
    3016:	48 83 c4 08          	add    $0x8,%rsp
    301a:	c3                   	retq   

Disassembly of section .plt:

0000000000003020 <.plt>:
    3020:	ff 35 c2 4e 00 00    	pushq  0x4ec2(%rip)        # 7ee8 <_GLOBAL_OFFSET_TABLE_+0x8>
    3026:	f2 ff 25 c3 4e 00 00 	bnd jmpq *0x4ec3(%rip)        # 7ef0 <_GLOBAL_OFFSET_TABLE_+0x10>
    302d:	0f 1f 00             	nopl   (%rax)
    3030:	f3 0f 1e fa          	endbr64 
    3034:	68 00 00 00 00       	pushq  $0x0
    3039:	f2 e9 e1 ff ff ff    	bnd jmpq 3020 <.plt>
    303f:	90                   	nop
    3040:	f3 0f 1e fa          	endbr64 
    3044:	68 01 00 00 00       	pushq  $0x1
    3049:	f2 e9 d1 ff ff ff    	bnd jmpq 3020 <.plt>
    304f:	90                   	nop
    3050:	f3 0f 1e fa          	endbr64 
    3054:	68 02 00 00 00       	pushq  $0x2
    3059:	f2 e9 c1 ff ff ff    	bnd jmpq 3020 <.plt>
    305f:	90                   	nop
    3060:	f3 0f 1e fa          	endbr64 
    3064:	68 03 00 00 00       	pushq  $0x3
    3069:	f2 e9 b1 ff ff ff    	bnd jmpq 3020 <.plt>
    306f:	90                   	nop
    3070:	f3 0f 1e fa          	endbr64 
    3074:	68 04 00 00 00       	pushq  $0x4
    3079:	f2 e9 a1 ff ff ff    	bnd jmpq 3020 <.plt>
    307f:	90                   	nop
    3080:	f3 0f 1e fa          	endbr64 
    3084:	68 05 00 00 00       	pushq  $0x5
    3089:	f2 e9 91 ff ff ff    	bnd jmpq 3020 <.plt>
    308f:	90                   	nop
    3090:	f3 0f 1e fa          	endbr64 
    3094:	68 06 00 00 00       	pushq  $0x6
    3099:	f2 e9 81 ff ff ff    	bnd jmpq 3020 <.plt>
    309f:	90                   	nop
    30a0:	f3 0f 1e fa          	endbr64 
    30a4:	68 07 00 00 00       	pushq  $0x7
    30a9:	f2 e9 71 ff ff ff    	bnd jmpq 3020 <.plt>
    30af:	90                   	nop
    30b0:	f3 0f 1e fa          	endbr64 
    30b4:	68 08 00 00 00       	pushq  $0x8
    30b9:	f2 e9 61 ff ff ff    	bnd jmpq 3020 <.plt>
    30bf:	90                   	nop
    30c0:	f3 0f 1e fa          	endbr64 
    30c4:	68 09 00 00 00       	pushq  $0x9
    30c9:	f2 e9 51 ff ff ff    	bnd jmpq 3020 <.plt>
    30cf:	90                   	nop
    30d0:	f3 0f 1e fa          	endbr64 
    30d4:	68 0a 00 00 00       	pushq  $0xa
    30d9:	f2 e9 41 ff ff ff    	bnd jmpq 3020 <.plt>
    30df:	90                   	nop
    30e0:	f3 0f 1e fa          	endbr64 
    30e4:	68 0b 00 00 00       	pushq  $0xb
    30e9:	f2 e9 31 ff ff ff    	bnd jmpq 3020 <.plt>
    30ef:	90                   	nop
    30f0:	f3 0f 1e fa          	endbr64 
    30f4:	68 0c 00 00 00       	pushq  $0xc
    30f9:	f2 e9 21 ff ff ff    	bnd jmpq 3020 <.plt>
    30ff:	90                   	nop
    3100:	f3 0f 1e fa          	endbr64 
    3104:	68 0d 00 00 00       	pushq  $0xd
    3109:	f2 e9 11 ff ff ff    	bnd jmpq 3020 <.plt>
    310f:	90                   	nop
    3110:	f3 0f 1e fa          	endbr64 
    3114:	68 0e 00 00 00       	pushq  $0xe
    3119:	f2 e9 01 ff ff ff    	bnd jmpq 3020 <.plt>
    311f:	90                   	nop
    3120:	f3 0f 1e fa          	endbr64 
    3124:	68 0f 00 00 00       	pushq  $0xf
    3129:	f2 e9 f1 fe ff ff    	bnd jmpq 3020 <.plt>
    312f:	90                   	nop
    3130:	f3 0f 1e fa          	endbr64 
    3134:	68 10 00 00 00       	pushq  $0x10
    3139:	f2 e9 e1 fe ff ff    	bnd jmpq 3020 <.plt>
    313f:	90                   	nop
    3140:	f3 0f 1e fa          	endbr64 
    3144:	68 11 00 00 00       	pushq  $0x11
    3149:	f2 e9 d1 fe ff ff    	bnd jmpq 3020 <.plt>
    314f:	90                   	nop
    3150:	f3 0f 1e fa          	endbr64 
    3154:	68 12 00 00 00       	pushq  $0x12
    3159:	f2 e9 c1 fe ff ff    	bnd jmpq 3020 <.plt>
    315f:	90                   	nop
    3160:	f3 0f 1e fa          	endbr64 
    3164:	68 13 00 00 00       	pushq  $0x13
    3169:	f2 e9 b1 fe ff ff    	bnd jmpq 3020 <.plt>
    316f:	90                   	nop
    3170:	f3 0f 1e fa          	endbr64 
    3174:	68 14 00 00 00       	pushq  $0x14
    3179:	f2 e9 a1 fe ff ff    	bnd jmpq 3020 <.plt>
    317f:	90                   	nop
    3180:	f3 0f 1e fa          	endbr64 
    3184:	68 15 00 00 00       	pushq  $0x15
    3189:	f2 e9 91 fe ff ff    	bnd jmpq 3020 <.plt>
    318f:	90                   	nop
    3190:	f3 0f 1e fa          	endbr64 
    3194:	68 16 00 00 00       	pushq  $0x16
    3199:	f2 e9 81 fe ff ff    	bnd jmpq 3020 <.plt>
    319f:	90                   	nop
    31a0:	f3 0f 1e fa          	endbr64 
    31a4:	68 17 00 00 00       	pushq  $0x17
    31a9:	f2 e9 71 fe ff ff    	bnd jmpq 3020 <.plt>
    31af:	90                   	nop
    31b0:	f3 0f 1e fa          	endbr64 
    31b4:	68 18 00 00 00       	pushq  $0x18
    31b9:	f2 e9 61 fe ff ff    	bnd jmpq 3020 <.plt>
    31bf:	90                   	nop
    31c0:	f3 0f 1e fa          	endbr64 
    31c4:	68 19 00 00 00       	pushq  $0x19
    31c9:	f2 e9 51 fe ff ff    	bnd jmpq 3020 <.plt>
    31cf:	90                   	nop
    31d0:	f3 0f 1e fa          	endbr64 
    31d4:	68 1a 00 00 00       	pushq  $0x1a
    31d9:	f2 e9 41 fe ff ff    	bnd jmpq 3020 <.plt>
    31df:	90                   	nop
    31e0:	f3 0f 1e fa          	endbr64 
    31e4:	68 1b 00 00 00       	pushq  $0x1b
    31e9:	f2 e9 31 fe ff ff    	bnd jmpq 3020 <.plt>
    31ef:	90                   	nop

Disassembly of section .plt.got:

00000000000031f0 <__cxa_finalize@plt>:
    31f0:	f3 0f 1e fa          	endbr64 
    31f4:	f2 ff 25 fd 4d 00 00 	bnd jmpq *0x4dfd(%rip)        # 7ff8 <__cxa_finalize@GLIBC_2.2.5>
    31fb:	0f 1f 44 00 00       	nopl   0x0(%rax,%rax,1)

Disassembly of section .plt.sec:

0000000000003200 <getenv@plt>:
    3200:	f3 0f 1e fa          	endbr64 
    3204:	f2 ff 25 ed 4c 00 00 	bnd jmpq *0x4ced(%rip)        # 7ef8 <getenv@GLIBC_2.2.5>
    320b:	0f 1f 44 00 00       	nopl   0x0(%rax,%rax,1)

0000000000003210 <__snprintf_chk@plt>:
    3210:	f3 0f 1e fa          	endbr64 
    3214:	f2 ff 25 e5 4c 00 00 	bnd jmpq *0x4ce5(%rip)        # 7f00 <__snprintf_chk@GLIBC_2.3.4>
    321b:	0f 1f 44 00 00       	nopl   0x0(%rax,%rax,1)

0000000000003220 <strcasecmp@plt>:
    3220:	f3 0f 1e fa          	endbr64 
    3224:	f2 ff 25 dd 4c 00 00 	bnd jmpq *0x4cdd(%rip)        # 7f08 <strcasecmp@GLIBC_2.2.5>
    322b:	0f 1f 44 00 00       	nopl   0x0(%rax,%rax,1)

0000000000003230 <__errno_location@plt>:
    3230:	f3 0f 1e fa          	endbr64 
    3234:	f2 ff 25 d5 4c 00 00 	bnd jmpq *0x4cd5(%rip)        # 7f10 <__errno_location@GLIBC_2.2.5>
    323b:	0f 1f 44 00 00       	nopl   0x0(%rax,%rax,1)

0000000000003240 <strcpy@plt>:
    3240:	f3 0f 1e fa          	endbr64 
    3244:	f2 ff 25 cd 4c 00 00 	bnd jmpq *0x4ccd(%rip)        # 7f18 <strcpy@GLIBC_2.2.5>
    324b:	0f 1f 44 00 00       	nopl   0x0(%rax,%rax,1)

0000000000003250 <puts@plt>:
    3250:	f3 0f 1e fa          	endbr64 
    3254:	f2 ff 25 c5 4c 00 00 	bnd jmpq *0x4cc5(%rip)        # 7f20 <puts@GLIBC_2.2.5>
    325b:	0f 1f 44 00 00       	nopl   0x0(%rax,%rax,1)

0000000000003260 <write@plt>:
    3260:	f3 0f 1e fa          	endbr64 
    3264:	f2 ff 25 bd 4c 00 00 	bnd jmpq *0x4cbd(%rip)        # 7f28 <write@GLIBC_2.2.5>
    326b:	0f 1f 44 00 00       	nopl   0x0(%rax,%rax,1)

0000000000003270 <__stack_chk_fail@plt>:
    3270:	f3 0f 1e fa          	endbr64 
    3274:	f2 ff 25 b5 4c 00 00 	bnd jmpq *0x4cb5(%rip)        # 7f30 <__stack_chk_fail@GLIBC_2.4>
    327b:	0f 1f 44 00 00       	nopl   0x0(%rax,%rax,1)

0000000000003280 <alarm@plt>:
    3280:	f3 0f 1e fa          	endbr64 
    3284:	f2 ff 25 ad 4c 00 00 	bnd jmpq *0x4cad(%rip)        # 7f38 <alarm@GLIBC_2.2.5>
    328b:	0f 1f 44 00 00       	nopl   0x0(%rax,%rax,1)

0000000000003290 <close@plt>:
    3290:	f3 0f 1e fa          	endbr64 
    3294:	f2 ff 25 a5 4c 00 00 	bnd jmpq *0x4ca5(%rip)        # 7f40 <close@GLIBC_2.2.5>
    329b:	0f 1f 44 00 00       	nopl   0x0(%rax,%rax,1)

00000000000032a0 <read@plt>:
    32a0:	f3 0f 1e fa          	endbr64 
    32a4:	f2 ff 25 9d 4c 00 00 	bnd jmpq *0x4c9d(%rip)        # 7f48 <read@GLIBC_2.2.5>
    32ab:	0f 1f 44 00 00       	nopl   0x0(%rax,%rax,1)

00000000000032b0 <fgets@plt>:
    32b0:	f3 0f 1e fa          	endbr64 
    32b4:	f2 ff 25 95 4c 00 00 	bnd jmpq *0x4c95(%rip)        # 7f50 <fgets@GLIBC_2.2.5>
    32bb:	0f 1f 44 00 00       	nopl   0x0(%rax,%rax,1)

00000000000032c0 <signal@plt>:
    32c0:	f3 0f 1e fa          	endbr64 
    32c4:	f2 ff 25 8d 4c 00 00 	bnd jmpq *0x4c8d(%rip)        # 7f58 <signal@GLIBC_2.2.5>
    32cb:	0f 1f 44 00 00       	nopl   0x0(%rax,%rax,1)

00000000000032d0 <gethostbyname@plt>:
    32d0:	f3 0f 1e fa          	endbr64 
    32d4:	f2 ff 25 85 4c 00 00 	bnd jmpq *0x4c85(%rip)        # 7f60 <gethostbyname@GLIBC_2.2.5>
    32db:	0f 1f 44 00 00       	nopl   0x0(%rax,%rax,1)

00000000000032e0 <__memmove_chk@plt>:
    32e0:	f3 0f 1e fa          	endbr64 
    32e4:	f2 ff 25 7d 4c 00 00 	bnd jmpq *0x4c7d(%rip)        # 7f68 <__memmove_chk@GLIBC_2.3.4>
    32eb:	0f 1f 44 00 00       	nopl   0x0(%rax,%rax,1)

00000000000032f0 <strtol@plt>:
    32f0:	f3 0f 1e fa          	endbr64 
    32f4:	f2 ff 25 75 4c 00 00 	bnd jmpq *0x4c75(%rip)        # 7f70 <strtol@GLIBC_2.2.5>
    32fb:	0f 1f 44 00 00       	nopl   0x0(%rax,%rax,1)

0000000000003300 <fflush@plt>:
    3300:	f3 0f 1e fa          	endbr64 
    3304:	f2 ff 25 6d 4c 00 00 	bnd jmpq *0x4c6d(%rip)        # 7f78 <fflush@GLIBC_2.2.5>
    330b:	0f 1f 44 00 00       	nopl   0x0(%rax,%rax,1)

0000000000003310 <__isoc99_sscanf@plt>:
    3310:	f3 0f 1e fa          	endbr64 
    3314:	f2 ff 25 65 4c 00 00 	bnd jmpq *0x4c65(%rip)        # 7f80 <__isoc99_sscanf@GLIBC_2.7>
    331b:	0f 1f 44 00 00       	nopl   0x0(%rax,%rax,1)

0000000000003320 <__printf_chk@plt>:
    3320:	f3 0f 1e fa          	endbr64 
    3324:	f2 ff 25 5d 4c 00 00 	bnd jmpq *0x4c5d(%rip)        # 7f88 <__printf_chk@GLIBC_2.3.4>
    332b:	0f 1f 44 00 00       	nopl   0x0(%rax,%rax,1)

0000000000003330 <fopen@plt>:
    3330:	f3 0f 1e fa          	endbr64 
    3334:	f2 ff 25 55 4c 00 00 	bnd jmpq *0x4c55(%rip)        # 7f90 <fopen@GLIBC_2.2.5>
    333b:	0f 1f 44 00 00       	nopl   0x0(%rax,%rax,1)

0000000000003340 <gethostname@plt>:
    3340:	f3 0f 1e fa          	endbr64 
    3344:	f2 ff 25 4d 4c 00 00 	bnd jmpq *0x4c4d(%rip)        # 7f98 <gethostname@GLIBC_2.2.5>
    334b:	0f 1f 44 00 00       	nopl   0x0(%rax,%rax,1)

0000000000003350 <exit@plt>:
    3350:	f3 0f 1e fa          	endbr64 
    3354:	f2 ff 25 45 4c 00 00 	bnd jmpq *0x4c45(%rip)        # 7fa0 <exit@GLIBC_2.2.5>
    335b:	0f 1f 44 00 00       	nopl   0x0(%rax,%rax,1)

0000000000003360 <connect@plt>:
    3360:	f3 0f 1e fa          	endbr64 
    3364:	f2 ff 25 3d 4c 00 00 	bnd jmpq *0x4c3d(%rip)        # 7fa8 <connect@GLIBC_2.2.5>
    336b:	0f 1f 44 00 00       	nopl   0x0(%rax,%rax,1)

0000000000003370 <__fprintf_chk@plt>:
    3370:	f3 0f 1e fa          	endbr64 
    3374:	f2 ff 25 35 4c 00 00 	bnd jmpq *0x4c35(%rip)        # 7fb0 <__fprintf_chk@GLIBC_2.3.4>
    337b:	0f 1f 44 00 00       	nopl   0x0(%rax,%rax,1)

0000000000003380 <sleep@plt>:
    3380:	f3 0f 1e fa          	endbr64 
    3384:	f2 ff 25 2d 4c 00 00 	bnd jmpq *0x4c2d(%rip)        # 7fb8 <sleep@GLIBC_2.2.5>
    338b:	0f 1f 44 00 00       	nopl   0x0(%rax,%rax,1)

0000000000003390 <__ctype_b_loc@plt>:
    3390:	f3 0f 1e fa          	endbr64 
    3394:	f2 ff 25 25 4c 00 00 	bnd jmpq *0x4c25(%rip)        # 7fc0 <__ctype_b_loc@GLIBC_2.3>
    339b:	0f 1f 44 00 00       	nopl   0x0(%rax,%rax,1)

00000000000033a0 <__sprintf_chk@plt>:
    33a0:	f3 0f 1e fa          	endbr64 
    33a4:	f2 ff 25 1d 4c 00 00 	bnd jmpq *0x4c1d(%rip)        # 7fc8 <__sprintf_chk@GLIBC_2.3.4>
    33ab:	0f 1f 44 00 00       	nopl   0x0(%rax,%rax,1)

00000000000033b0 <socket@plt>:
    33b0:	f3 0f 1e fa          	endbr64 
    33b4:	f2 ff 25 15 4c 00 00 	bnd jmpq *0x4c15(%rip)        # 7fd0 <socket@GLIBC_2.2.5>
    33bb:	0f 1f 44 00 00       	nopl   0x0(%rax,%rax,1)

Disassembly of section .text:

00000000000033c0 <_start>:
    33c0:	f3 0f 1e fa          	endbr64 
    33c4:	31 ed                	xor    %ebp,%ebp
    33c6:	49 89 d1             	mov    %rdx,%r9
    33c9:	5e                   	pop    %rsi
    33ca:	48 89 e2             	mov    %rsp,%rdx
    33cd:	48 83 e4 f0          	and    $0xfffffffffffffff0,%rsp
    33d1:	50                   	push   %rax
    33d2:	54                   	push   %rsp
    33d3:	4c 8d 05 d6 1a 00 00 	lea    0x1ad6(%rip),%r8        # 4eb0 <__libc_csu_fini>
    33da:	48 8d 0d 5f 1a 00 00 	lea    0x1a5f(%rip),%rcx        # 4e40 <__libc_csu_init>
    33e1:	48 8d 3d c1 00 00 00 	lea    0xc1(%rip),%rdi        # 34a9 <main>
    33e8:	ff 15 f2 4b 00 00    	callq  *0x4bf2(%rip)        # 7fe0 <__libc_start_main@GLIBC_2.2.5>
    33ee:	f4                   	hlt    
    33ef:	90                   	nop

00000000000033f0 <deregister_tm_clones>:
    33f0:	48 8d 3d 89 56 00 00 	lea    0x5689(%rip),%rdi        # 8a80 <stdout@@GLIBC_2.2.5>
    33f7:	48 8d 05 82 56 00 00 	lea    0x5682(%rip),%rax        # 8a80 <stdout@@GLIBC_2.2.5>
    33fe:	48 39 f8             	cmp    %rdi,%rax
    3401:	74 15                	je     3418 <deregister_tm_clones+0x28>
    3403:	48 8b 05 ce 4b 00 00 	mov    0x4bce(%rip),%rax        # 7fd8 <_ITM_deregisterTMCloneTable>
    340a:	48 85 c0             	test   %rax,%rax
    340d:	74 09                	je     3418 <deregister_tm_clones+0x28>
    340f:	ff e0                	jmpq   *%rax
    3411:	0f 1f 80 00 00 00 00 	nopl   0x0(%rax)
    3418:	c3                   	retq   
    3419:	0f 1f 80 00 00 00 00 	nopl   0x0(%rax)

0000000000003420 <register_tm_clones>:
    3420:	48 8d 3d 59 56 00 00 	lea    0x5659(%rip),%rdi        # 8a80 <stdout@@GLIBC_2.2.5>
    3427:	48 8d 35 52 56 00 00 	lea    0x5652(%rip),%rsi        # 8a80 <stdout@@GLIBC_2.2.5>
    342e:	48 29 fe             	sub    %rdi,%rsi
    3431:	48 89 f0             	mov    %rsi,%rax
    3434:	48 c1 ee 3f          	shr    $0x3f,%rsi
    3438:	48 c1 f8 03          	sar    $0x3,%rax
    343c:	48 01 c6             	add    %rax,%rsi
    343f:	48 d1 fe             	sar    %rsi
    3442:	74 14                	je     3458 <register_tm_clones+0x38>
    3444:	48 8b 05 a5 4b 00 00 	mov    0x4ba5(%rip),%rax        # 7ff0 <_ITM_registerTMCloneTable>
    344b:	48 85 c0             	test   %rax,%rax
    344e:	74 08                	je     3458 <register_tm_clones+0x38>
    3450:	ff e0                	jmpq   *%rax
    3452:	66 0f 1f 44 00 00    	nopw   0x0(%rax,%rax,1)
    3458:	c3                   	retq   
    3459:	0f 1f 80 00 00 00 00 	nopl   0x0(%rax)

0000000000003460 <__do_global_dtors_aux>:
    3460:	f3 0f 1e fa          	endbr64 
    3464:	80 3d 3d 56 00 00 00 	cmpb   $0x0,0x563d(%rip)        # 8aa8 <completed.8059>
    346b:	75 2b                	jne    3498 <__do_global_dtors_aux+0x38>
    346d:	55                   	push   %rbp
    346e:	48 83 3d 82 4b 00 00 	cmpq   $0x0,0x4b82(%rip)        # 7ff8 <__cxa_finalize@GLIBC_2.2.5>
    3475:	00 
    3476:	48 89 e5             	mov    %rsp,%rbp
    3479:	74 0c                	je     3487 <__do_global_dtors_aux+0x27>
    347b:	48 8b 3d 86 4b 00 00 	mov    0x4b86(%rip),%rdi        # 8008 <__dso_handle>
    3482:	e8 69 fd ff ff       	callq  31f0 <__cxa_finalize@plt>
    3487:	e8 64 ff ff ff       	callq  33f0 <deregister_tm_clones>
    348c:	c6 05 15 56 00 00 01 	movb   $0x1,0x5615(%rip)        # 8aa8 <completed.8059>
    3493:	5d                   	pop    %rbp
    3494:	c3                   	retq   
    3495:	0f 1f 00             	nopl   (%rax)
    3498:	c3                   	retq   
    3499:	0f 1f 80 00 00 00 00 	nopl   0x0(%rax)

00000000000034a0 <frame_dummy>:
    34a0:	f3 0f 1e fa          	endbr64 
    34a4:	e9 77 ff ff ff       	jmpq   3420 <register_tm_clones>

00000000000034a9 <main>:
    34a9:	f3 0f 1e fa          	endbr64 
    34ad:	53                   	push   %rbx
    34ae:	83 ff 01             	cmp    $0x1,%edi
    34b1:	0f 84 f8 00 00 00    	je     35af <main+0x106>
    34b7:	48 89 f3             	mov    %rsi,%rbx
    34ba:	83 ff 02             	cmp    $0x2,%edi
    34bd:	0f 85 21 01 00 00    	jne    35e4 <main+0x13b>
    34c3:	48 8b 7e 08          	mov    0x8(%rsi),%rdi
    34c7:	48 8d 35 36 1b 00 00 	lea    0x1b36(%rip),%rsi        # 5004 <_IO_stdin_used+0x4>
    34ce:	e8 5d fe ff ff       	callq  3330 <fopen@plt>
    34d3:	48 89 05 d6 55 00 00 	mov    %rax,0x55d6(%rip)        # 8ab0 <infile>
    34da:	48 85 c0             	test   %rax,%rax
    34dd:	0f 84 df 00 00 00    	je     35c2 <main+0x119>
    34e3:	e8 9d 06 00 00       	callq  3b85 <initialize_bomb>
    34e8:	48 8d 3d 99 1b 00 00 	lea    0x1b99(%rip),%rdi        # 5088 <_IO_stdin_used+0x88>
    34ef:	e8 5c fd ff ff       	callq  3250 <puts@plt>
    34f4:	48 8d 3d cd 1b 00 00 	lea    0x1bcd(%rip),%rdi        # 50c8 <_IO_stdin_used+0xc8>
    34fb:	e8 50 fd ff ff       	callq  3250 <puts@plt>
    3500:	e8 f1 09 00 00       	callq  3ef6 <read_line>
    3505:	48 89 c7             	mov    %rax,%rdi
    3508:	e8 fa 00 00 00       	callq  3607 <phase_1>
    350d:	e8 2c 0b 00 00       	callq  403e <phase_defused>
    3512:	48 8d 3d df 1b 00 00 	lea    0x1bdf(%rip),%rdi        # 50f8 <_IO_stdin_used+0xf8>
    3519:	e8 32 fd ff ff       	callq  3250 <puts@plt>
    351e:	e8 d3 09 00 00       	callq  3ef6 <read_line>
    3523:	48 89 c7             	mov    %rax,%rdi
    3526:	e8 00 01 00 00       	callq  362b <phase_2>
    352b:	e8 0e 0b 00 00       	callq  403e <phase_defused>
    3530:	48 8d 3d 06 1b 00 00 	lea    0x1b06(%rip),%rdi        # 503d <_IO_stdin_used+0x3d>
    3537:	e8 14 fd ff ff       	callq  3250 <puts@plt>
    353c:	e8 b5 09 00 00       	callq  3ef6 <read_line>
    3541:	48 89 c7             	mov    %rax,%rdi
    3544:	e8 60 01 00 00       	callq  36a9 <phase_3>
    3549:	e8 f0 0a 00 00       	callq  403e <phase_defused>
    354e:	48 8d 3d 06 1b 00 00 	lea    0x1b06(%rip),%rdi        # 505b <_IO_stdin_used+0x5b>
    3555:	e8 f6 fc ff ff       	callq  3250 <puts@plt>
    355a:	e8 97 09 00 00       	callq  3ef6 <read_line>
    355f:	48 89 c7             	mov    %rax,%rdi
    3562:	e8 3e 02 00 00       	callq  37a5 <phase_4>
    3567:	e8 d2 0a 00 00       	callq  403e <phase_defused>
    356c:	48 8d 3d b5 1b 00 00 	lea    0x1bb5(%rip),%rdi        # 5128 <_IO_stdin_used+0x128>
    3573:	e8 d8 fc ff ff       	callq  3250 <puts@plt>
    3578:	e8 79 09 00 00       	callq  3ef6 <read_line>
    357d:	48 89 c7             	mov    %rax,%rdi
    3580:	e8 93 02 00 00       	callq  3818 <phase_5>
    3585:	e8 b4 0a 00 00       	callq  403e <phase_defused>
    358a:	48 8d 3d d9 1a 00 00 	lea    0x1ad9(%rip),%rdi        # 506a <_IO_stdin_used+0x6a>
    3591:	e8 ba fc ff ff       	callq  3250 <puts@plt>
    3596:	e8 5b 09 00 00       	callq  3ef6 <read_line>
    359b:	48 89 c7             	mov    %rax,%rdi
    359e:	e8 0c 03 00 00       	callq  38af <phase_6>
    35a3:	e8 96 0a 00 00       	callq  403e <phase_defused>
    35a8:	b8 00 00 00 00       	mov    $0x0,%eax
    35ad:	5b                   	pop    %rbx
    35ae:	c3                   	retq   
    35af:	48 8b 05 da 54 00 00 	mov    0x54da(%rip),%rax        # 8a90 <stdin@@GLIBC_2.2.5>
    35b6:	48 89 05 f3 54 00 00 	mov    %rax,0x54f3(%rip)        # 8ab0 <infile>
    35bd:	e9 21 ff ff ff       	jmpq   34e3 <main+0x3a>
    35c2:	48 8b 4b 08          	mov    0x8(%rbx),%rcx
    35c6:	48 8b 13             	mov    (%rbx),%rdx
    35c9:	48 8d 35 36 1a 00 00 	lea    0x1a36(%rip),%rsi        # 5006 <_IO_stdin_used+0x6>
    35d0:	bf 01 00 00 00       	mov    $0x1,%edi
    35d5:	e8 46 fd ff ff       	callq  3320 <__printf_chk@plt>
    35da:	bf 08 00 00 00       	mov    $0x8,%edi
    35df:	e8 6c fd ff ff       	callq  3350 <exit@plt>
    35e4:	48 8b 16             	mov    (%rsi),%rdx
    35e7:	48 8d 35 35 1a 00 00 	lea    0x1a35(%rip),%rsi        # 5023 <_IO_stdin_used+0x23>
    35ee:	bf 01 00 00 00       	mov    $0x1,%edi
    35f3:	b8 00 00 00 00       	mov    $0x0,%eax
    35f8:	e8 23 fd ff ff       	callq  3320 <__printf_chk@plt>
    35fd:	bf 08 00 00 00       	mov    $0x8,%edi
    3602:	e8 49 fd ff ff       	callq  3350 <exit@plt>

0000000000003607 <phase_1>:
    3607:	f3 0f 1e fa          	endbr64 
    360b:	48 83 ec 08          	sub    $0x8,%rsp
    360f:	48 8d 35 3a 1b 00 00 	lea    0x1b3a(%rip),%rsi        # 5150 <_IO_stdin_used+0x150>
    3616:	e8 0a 05 00 00       	callq  3b25 <strings_not_equal>
    361b:	85 c0                	test   %eax,%eax
    361d:	75 05                	jne    3624 <phase_1+0x1d>
    361f:	48 83 c4 08          	add    $0x8,%rsp
    3623:	c3                   	retq   
    3624:	e8 46 08 00 00       	callq  3e6f <explode_bomb>
    3629:	eb f4                	jmp    361f <phase_1+0x18>

000000000000362b <phase_2>:
    362b:	f3 0f 1e fa          	endbr64 
    362f:	55                   	push   %rbp
    3630:	53                   	push   %rbx
    3631:	48 83 ec 28          	sub    $0x28,%rsp
    3635:	64 48 8b 04 25 28 00 	mov    %fs:0x28,%rax
    363c:	00 00 
    363e:	48 89 44 24 18       	mov    %rax,0x18(%rsp)
    3643:	31 c0                	xor    %eax,%eax
    3645:	48 89 e6             	mov    %rsp,%rsi
    3648:	e8 64 08 00 00       	callq  3eb1 <read_six_numbers>
    364d:	83 3c 24 02          	cmpl   $0x2,(%rsp)
    3651:	75 11                	jne    3664 <phase_2+0x39>
    3653:	83 7c 24 04 03       	cmpl   $0x3,0x4(%rsp)
    3658:	75 11                	jne    366b <phase_2+0x40>
    365a:	48 89 e3             	mov    %rsp,%rbx
    365d:	48 8d 6c 24 10       	lea    0x10(%rsp),%rbp
    3662:	eb 1c                	jmp    3680 <phase_2+0x55>
    3664:	e8 06 08 00 00       	callq  3e6f <explode_bomb>
    3669:	eb e8                	jmp    3653 <phase_2+0x28>
    366b:	e8 ff 07 00 00       	callq  3e6f <explode_bomb>
    3670:	eb e8                	jmp    365a <phase_2+0x2f>
    3672:	e8 f8 07 00 00       	callq  3e6f <explode_bomb>
    3677:	48 83 c3 04          	add    $0x4,%rbx
    367b:	48 39 eb             	cmp    %rbp,%rbx
    367e:	74 0d                	je     368d <phase_2+0x62>
    3680:	8b 43 04             	mov    0x4(%rbx),%eax
    3683:	0f af 03             	imul   (%rbx),%eax
    3686:	39 43 08             	cmp    %eax,0x8(%rbx)
    3689:	74 ec                	je     3677 <phase_2+0x4c>
    368b:	eb e5                	jmp    3672 <phase_2+0x47>
    368d:	48 8b 44 24 18       	mov    0x18(%rsp),%rax
    3692:	64 48 33 04 25 28 00 	xor    %fs:0x28,%rax
    3699:	00 00 
    369b:	75 07                	jne    36a4 <phase_2+0x79>
    369d:	48 83 c4 28          	add    $0x28,%rsp
    36a1:	5b                   	pop    %rbx
    36a2:	5d                   	pop    %rbp
    36a3:	c3                   	retq   
    36a4:	e8 c7 fb ff ff       	callq  3270 <__stack_chk_fail@plt>

00000000000036a9 <phase_3>:
    36a9:	f3 0f 1e fa          	endbr64 
    36ad:	48 83 ec 18          	sub    $0x18,%rsp
    36b1:	64 48 8b 04 25 28 00 	mov    %fs:0x28,%rax
    36b8:	00 00 
    36ba:	48 89 44 24 08       	mov    %rax,0x8(%rsp)
    36bf:	31 c0                	xor    %eax,%eax
    36c1:	48 8d 4c 24 04       	lea    0x4(%rsp),%rcx
    36c6:	48 89 e2             	mov    %rsp,%rdx
    36c9:	48 8d 35 14 1e 00 00 	lea    0x1e14(%rip),%rsi        # 54e4 <array.3483+0x304>
    36d0:	e8 3b fc ff ff       	callq  3310 <__isoc99_sscanf@plt>
    36d5:	83 f8 01             	cmp    $0x1,%eax
    36d8:	7e 1a                	jle    36f4 <phase_3+0x4b>
    36da:	83 3c 24 07          	cmpl   $0x7,(%rsp)
    36de:	77 65                	ja     3745 <phase_3+0x9c>
    36e0:	8b 04 24             	mov    (%rsp),%eax
    36e3:	48 8d 15 d6 1a 00 00 	lea    0x1ad6(%rip),%rdx        # 51c0 <_IO_stdin_used+0x1c0>
    36ea:	48 63 04 82          	movslq (%rdx,%rax,4),%rax
    36ee:	48 01 d0             	add    %rdx,%rax
    36f1:	3e ff e0             	notrack jmpq *%rax
    36f4:	e8 76 07 00 00       	callq  3e6f <explode_bomb>
    36f9:	eb df                	jmp    36da <phase_3+0x31>
    36fb:	b8 dc 00 00 00       	mov    $0xdc,%eax
    3700:	39 44 24 04          	cmp    %eax,0x4(%rsp)
    3704:	75 52                	jne    3758 <phase_3+0xaf>
    3706:	48 8b 44 24 08       	mov    0x8(%rsp),%rax
    370b:	64 48 33 04 25 28 00 	xor    %fs:0x28,%rax
    3712:	00 00 
    3714:	75 49                	jne    375f <phase_3+0xb6>
    3716:	48 83 c4 18          	add    $0x18,%rsp
    371a:	c3                   	retq   
    371b:	b8 a7 01 00 00       	mov    $0x1a7,%eax
    3720:	eb de                	jmp    3700 <phase_3+0x57>
    3722:	b8 41 01 00 00       	mov    $0x141,%eax
    3727:	eb d7                	jmp    3700 <phase_3+0x57>
    3729:	b8 21 03 00 00       	mov    $0x321,%eax
    372e:	eb d0                	jmp    3700 <phase_3+0x57>
    3730:	b8 b6 01 00 00       	mov    $0x1b6,%eax
    3735:	eb c9                	jmp    3700 <phase_3+0x57>
    3737:	b8 d2 01 00 00       	mov    $0x1d2,%eax
    373c:	eb c2                	jmp    3700 <phase_3+0x57>
    373e:	b8 95 01 00 00       	mov    $0x195,%eax
    3743:	eb bb                	jmp    3700 <phase_3+0x57>
    3745:	e8 25 07 00 00       	callq  3e6f <explode_bomb>
    374a:	b8 00 00 00 00       	mov    $0x0,%eax
    374f:	eb af                	jmp    3700 <phase_3+0x57>
    3751:	b8 ee 02 00 00       	mov    $0x2ee,%eax
    3756:	eb a8                	jmp    3700 <phase_3+0x57>
    3758:	e8 12 07 00 00       	callq  3e6f <explode_bomb>
    375d:	eb a7                	jmp    3706 <phase_3+0x5d>
    375f:	e8 0c fb ff ff       	callq  3270 <__stack_chk_fail@plt>

0000000000003764 <func4>:
    3764:	f3 0f 1e fa          	endbr64 
    3768:	48 83 ec 08          	sub    $0x8,%rsp
    376c:	89 d0                	mov    %edx,%eax
    376e:	29 f0                	sub    %esi,%eax
    3770:	89 c1                	mov    %eax,%ecx
    3772:	c1 e9 1f             	shr    $0x1f,%ecx
    3775:	01 c1                	add    %eax,%ecx
    3777:	d1 f9                	sar    %ecx
    3779:	01 f1                	add    %esi,%ecx
    377b:	39 f9                	cmp    %edi,%ecx
    377d:	7f 0c                	jg     378b <func4+0x27>
    377f:	b8 00 00 00 00       	mov    $0x0,%eax
    3784:	7c 11                	jl     3797 <func4+0x33>
    3786:	48 83 c4 08          	add    $0x8,%rsp
    378a:	c3                   	retq   
    378b:	8d 51 ff             	lea    -0x1(%rcx),%edx
    378e:	e8 d1 ff ff ff       	callq  3764 <func4>
    3793:	01 c0                	add    %eax,%eax
    3795:	eb ef                	jmp    3786 <func4+0x22>
    3797:	8d 71 01             	lea    0x1(%rcx),%esi
    379a:	e8 c5 ff ff ff       	callq  3764 <func4>
    379f:	8d 44 00 01          	lea    0x1(%rax,%rax,1),%eax
    37a3:	eb e1                	jmp    3786 <func4+0x22>

00000000000037a5 <phase_4>:
    37a5:	f3 0f 1e fa          	endbr64 
    37a9:	48 83 ec 18          	sub    $0x18,%rsp
    37ad:	64 48 8b 04 25 28 00 	mov    %fs:0x28,%rax
    37b4:	00 00 
    37b6:	48 89 44 24 08       	mov    %rax,0x8(%rsp)
    37bb:	31 c0                	xor    %eax,%eax
    37bd:	48 8d 4c 24 04       	lea    0x4(%rsp),%rcx
    37c2:	48 89 e2             	mov    %rsp,%rdx
    37c5:	48 8d 35 18 1d 00 00 	lea    0x1d18(%rip),%rsi        # 54e4 <array.3483+0x304>
    37cc:	e8 3f fb ff ff       	callq  3310 <__isoc99_sscanf@plt>
    37d1:	83 f8 02             	cmp    $0x2,%eax
    37d4:	75 06                	jne    37dc <phase_4+0x37>
    37d6:	83 3c 24 0e          	cmpl   $0xe,(%rsp)
    37da:	76 05                	jbe    37e1 <phase_4+0x3c>
    37dc:	e8 8e 06 00 00       	callq  3e6f <explode_bomb>
    37e1:	ba 0e 00 00 00       	mov    $0xe,%edx
    37e6:	be 00 00 00 00       	mov    $0x0,%esi
    37eb:	8b 3c 24             	mov    (%rsp),%edi
    37ee:	e8 71 ff ff ff       	callq  3764 <func4>
    37f3:	0b 44 24 04          	or     0x4(%rsp),%eax
    37f7:	74 05                	je     37fe <phase_4+0x59>
    37f9:	e8 71 06 00 00       	callq  3e6f <explode_bomb>
    37fe:	48 8b 44 24 08       	mov    0x8(%rsp),%rax
    3803:	64 48 33 04 25 28 00 	xor    %fs:0x28,%rax
    380a:	00 00 
    380c:	75 05                	jne    3813 <phase_4+0x6e>
    380e:	48 83 c4 18          	add    $0x18,%rsp
    3812:	c3                   	retq   
    3813:	e8 58 fa ff ff       	callq  3270 <__stack_chk_fail@plt>

0000000000003818 <phase_5>:
    3818:	f3 0f 1e fa          	endbr64 
    381c:	48 83 ec 18          	sub    $0x18,%rsp
    3820:	64 48 8b 04 25 28 00 	mov    %fs:0x28,%rax
    3827:	00 00 
    3829:	48 89 44 24 08       	mov    %rax,0x8(%rsp)
    382e:	31 c0                	xor    %eax,%eax
    3830:	48 8d 4c 24 04       	lea    0x4(%rsp),%rcx
    3835:	48 89 e2             	mov    %rsp,%rdx
    3838:	48 8d 35 a5 1c 00 00 	lea    0x1ca5(%rip),%rsi        # 54e4 <array.3483+0x304>
    383f:	e8 cc fa ff ff       	callq  3310 <__isoc99_sscanf@plt>
    3844:	83 f8 01             	cmp    $0x1,%eax
    3847:	7e 5a                	jle    38a3 <phase_5+0x8b>
    3849:	8b 04 24             	mov    (%rsp),%eax
    384c:	83 e0 0f             	and    $0xf,%eax
    384f:	89 04 24             	mov    %eax,(%rsp)
    3852:	83 f8 0f             	cmp    $0xf,%eax
    3855:	74 32                	je     3889 <phase_5+0x71>
    3857:	b9 96 00 00 00       	mov    $0x96,%ecx
    385c:	ba 00 00 00 00       	mov    $0x0,%edx
    3861:	48 8d 35 78 19 00 00 	lea    0x1978(%rip),%rsi        # 51e0 <array.3483>
    3868:	83 c2 01             	add    $0x1,%edx
    386b:	48 98                	cltq   
    386d:	8b 04 86             	mov    (%rsi,%rax,4),%eax
    3870:	29 c1                	sub    %eax,%ecx
    3872:	83 f8 0f             	cmp    $0xf,%eax
    3875:	75 f1                	jne    3868 <phase_5+0x50>
    3877:	c7 04 24 0f 00 00 00 	movl   $0xf,(%rsp)
    387e:	83 fa 0f             	cmp    $0xf,%edx
    3881:	75 06                	jne    3889 <phase_5+0x71>
    3883:	39 4c 24 04          	cmp    %ecx,0x4(%rsp)
    3887:	74 05                	je     388e <phase_5+0x76>
    3889:	e8 e1 05 00 00       	callq  3e6f <explode_bomb>
    388e:	48 8b 44 24 08       	mov    0x8(%rsp),%rax
    3893:	64 48 33 04 25 28 00 	xor    %fs:0x28,%rax
    389a:	00 00 
    389c:	75 0c                	jne    38aa <phase_5+0x92>
    389e:	48 83 c4 18          	add    $0x18,%rsp
    38a2:	c3                   	retq   
    38a3:	e8 c7 05 00 00       	callq  3e6f <explode_bomb>
    38a8:	eb 9f                	jmp    3849 <phase_5+0x31>
    38aa:	e8 c1 f9 ff ff       	callq  3270 <__stack_chk_fail@plt>

00000000000038af <phase_6>:
    38af:	f3 0f 1e fa          	endbr64 
    38b3:	41 56                	push   %r14
    38b5:	41 55                	push   %r13
    38b7:	41 54                	push   %r12
    38b9:	55                   	push   %rbp
    38ba:	53                   	push   %rbx
    38bb:	48 83 ec 60          	sub    $0x60,%rsp
    38bf:	64 48 8b 04 25 28 00 	mov    %fs:0x28,%rax
    38c6:	00 00 
    38c8:	48 89 44 24 58       	mov    %rax,0x58(%rsp)
    38cd:	31 c0                	xor    %eax,%eax
    38cf:	49 89 e5             	mov    %rsp,%r13
    38d2:	4c 89 ee             	mov    %r13,%rsi
    38d5:	e8 d7 05 00 00       	callq  3eb1 <read_six_numbers>
    38da:	41 be 01 00 00 00    	mov    $0x1,%r14d
    38e0:	49 89 e4             	mov    %rsp,%r12
    38e3:	eb 28                	jmp    390d <phase_6+0x5e>
    38e5:	e8 85 05 00 00       	callq  3e6f <explode_bomb>
    38ea:	eb 30                	jmp    391c <phase_6+0x6d>
    38ec:	48 83 c3 01          	add    $0x1,%rbx
    38f0:	83 fb 05             	cmp    $0x5,%ebx
    38f3:	7f 10                	jg     3905 <phase_6+0x56>
    38f5:	41 8b 04 9c          	mov    (%r12,%rbx,4),%eax
    38f9:	39 45 00             	cmp    %eax,0x0(%rbp)
    38fc:	75 ee                	jne    38ec <phase_6+0x3d>
    38fe:	e8 6c 05 00 00       	callq  3e6f <explode_bomb>
    3903:	eb e7                	jmp    38ec <phase_6+0x3d>
    3905:	49 83 c6 01          	add    $0x1,%r14
    3909:	49 83 c5 04          	add    $0x4,%r13
    390d:	4c 89 ed             	mov    %r13,%rbp
    3910:	41 8b 45 00          	mov    0x0(%r13),%eax
    3914:	83 e8 01             	sub    $0x1,%eax
    3917:	83 f8 05             	cmp    $0x5,%eax
    391a:	77 c9                	ja     38e5 <phase_6+0x36>
    391c:	41 83 fe 05          	cmp    $0x5,%r14d
    3920:	7f 05                	jg     3927 <phase_6+0x78>
    3922:	4c 89 f3             	mov    %r14,%rbx
    3925:	eb ce                	jmp    38f5 <phase_6+0x46>
    3927:	be 00 00 00 00       	mov    $0x0,%esi
    392c:	8b 0c b4             	mov    (%rsp,%rsi,4),%ecx
    392f:	b8 01 00 00 00       	mov    $0x1,%eax
    3934:	48 8d 15 f5 48 00 00 	lea    0x48f5(%rip),%rdx        # 8230 <node1>
    393b:	83 f9 01             	cmp    $0x1,%ecx
    393e:	7e 0b                	jle    394b <phase_6+0x9c>
    3940:	48 8b 52 08          	mov    0x8(%rdx),%rdx
    3944:	83 c0 01             	add    $0x1,%eax
    3947:	39 c8                	cmp    %ecx,%eax
    3949:	75 f5                	jne    3940 <phase_6+0x91>
    394b:	48 89 54 f4 20       	mov    %rdx,0x20(%rsp,%rsi,8)
    3950:	48 83 c6 01          	add    $0x1,%rsi
    3954:	48 83 fe 06          	cmp    $0x6,%rsi
    3958:	75 d2                	jne    392c <phase_6+0x7d>
    395a:	48 8b 5c 24 20       	mov    0x20(%rsp),%rbx
    395f:	48 8b 44 24 28       	mov    0x28(%rsp),%rax
    3964:	48 89 43 08          	mov    %rax,0x8(%rbx)
    3968:	48 8b 54 24 30       	mov    0x30(%rsp),%rdx
    396d:	48 89 50 08          	mov    %rdx,0x8(%rax)
    3971:	48 8b 44 24 38       	mov    0x38(%rsp),%rax
    3976:	48 89 42 08          	mov    %rax,0x8(%rdx)
    397a:	48 8b 54 24 40       	mov    0x40(%rsp),%rdx
    397f:	48 89 50 08          	mov    %rdx,0x8(%rax)
    3983:	48 8b 44 24 48       	mov    0x48(%rsp),%rax
    3988:	48 89 42 08          	mov    %rax,0x8(%rdx)
    398c:	48 c7 40 08 00 00 00 	movq   $0x0,0x8(%rax)
    3993:	00 
    3994:	bd 05 00 00 00       	mov    $0x5,%ebp
    3999:	eb 09                	jmp    39a4 <phase_6+0xf5>
    399b:	48 8b 5b 08          	mov    0x8(%rbx),%rbx
    399f:	83 ed 01             	sub    $0x1,%ebp
    39a2:	74 11                	je     39b5 <phase_6+0x106>
    39a4:	48 8b 43 08          	mov    0x8(%rbx),%rax
    39a8:	8b 00                	mov    (%rax),%eax
    39aa:	39 03                	cmp    %eax,(%rbx)
    39ac:	7d ed                	jge    399b <phase_6+0xec>
    39ae:	e8 bc 04 00 00       	callq  3e6f <explode_bomb>
    39b3:	eb e6                	jmp    399b <phase_6+0xec>
    39b5:	48 8b 44 24 58       	mov    0x58(%rsp),%rax
    39ba:	64 48 33 04 25 28 00 	xor    %fs:0x28,%rax
    39c1:	00 00 
    39c3:	75 0d                	jne    39d2 <phase_6+0x123>
    39c5:	48 83 c4 60          	add    $0x60,%rsp
    39c9:	5b                   	pop    %rbx
    39ca:	5d                   	pop    %rbp
    39cb:	41 5c                	pop    %r12
    39cd:	41 5d                	pop    %r13
    39cf:	41 5e                	pop    %r14
    39d1:	c3                   	retq   
    39d2:	e8 99 f8 ff ff       	callq  3270 <__stack_chk_fail@plt>

00000000000039d7 <fun7>:
    39d7:	f3 0f 1e fa          	endbr64 
    39db:	48 85 ff             	test   %rdi,%rdi
    39de:	74 32                	je     3a12 <fun7+0x3b>
    39e0:	48 83 ec 08          	sub    $0x8,%rsp
    39e4:	8b 17                	mov    (%rdi),%edx
    39e6:	39 f2                	cmp    %esi,%edx
    39e8:	7f 0c                	jg     39f6 <fun7+0x1f>
    39ea:	b8 00 00 00 00       	mov    $0x0,%eax
    39ef:	75 12                	jne    3a03 <fun7+0x2c>
    39f1:	48 83 c4 08          	add    $0x8,%rsp
    39f5:	c3                   	retq   
    39f6:	48 8b 7f 08          	mov    0x8(%rdi),%rdi
    39fa:	e8 d8 ff ff ff       	callq  39d7 <fun7>
    39ff:	01 c0                	add    %eax,%eax
    3a01:	eb ee                	jmp    39f1 <fun7+0x1a>
    3a03:	48 8b 7f 10          	mov    0x10(%rdi),%rdi
    3a07:	e8 cb ff ff ff       	callq  39d7 <fun7>
    3a0c:	8d 44 00 01          	lea    0x1(%rax,%rax,1),%eax
    3a10:	eb df                	jmp    39f1 <fun7+0x1a>
    3a12:	b8 ff ff ff ff       	mov    $0xffffffff,%eax
    3a17:	c3                   	retq   

0000000000003a18 <secret_phase>:
    3a18:	f3 0f 1e fa          	endbr64 
    3a1c:	53                   	push   %rbx
    3a1d:	e8 d4 04 00 00       	callq  3ef6 <read_line>
    3a22:	48 89 c7             	mov    %rax,%rdi
    3a25:	ba 0a 00 00 00       	mov    $0xa,%edx
    3a2a:	be 00 00 00 00       	mov    $0x0,%esi
    3a2f:	e8 bc f8 ff ff       	callq  32f0 <strtol@plt>
    3a34:	48 89 c3             	mov    %rax,%rbx
    3a37:	8d 40 ff             	lea    -0x1(%rax),%eax
    3a3a:	3d e8 03 00 00       	cmp    $0x3e8,%eax
    3a3f:	77 26                	ja     3a67 <secret_phase+0x4f>
    3a41:	89 de                	mov    %ebx,%esi
    3a43:	48 8d 3d 06 47 00 00 	lea    0x4706(%rip),%rdi        # 8150 <n1>
    3a4a:	e8 88 ff ff ff       	callq  39d7 <fun7>
    3a4f:	83 f8 01             	cmp    $0x1,%eax
    3a52:	75 1a                	jne    3a6e <secret_phase+0x56>
    3a54:	48 8d 3d 2d 17 00 00 	lea    0x172d(%rip),%rdi        # 5188 <_IO_stdin_used+0x188>
    3a5b:	e8 f0 f7 ff ff       	callq  3250 <puts@plt>
    3a60:	e8 d9 05 00 00       	callq  403e <phase_defused>
    3a65:	5b                   	pop    %rbx
    3a66:	c3                   	retq   
    3a67:	e8 03 04 00 00       	callq  3e6f <explode_bomb>
    3a6c:	eb d3                	jmp    3a41 <secret_phase+0x29>
    3a6e:	e8 fc 03 00 00       	callq  3e6f <explode_bomb>
    3a73:	eb df                	jmp    3a54 <secret_phase+0x3c>

0000000000003a75 <sig_handler>:
    3a75:	f3 0f 1e fa          	endbr64 
    3a79:	50                   	push   %rax
    3a7a:	58                   	pop    %rax
    3a7b:	48 83 ec 08          	sub    $0x8,%rsp
    3a7f:	48 8d 3d 9a 17 00 00 	lea    0x179a(%rip),%rdi        # 5220 <array.3483+0x40>
    3a86:	e8 c5 f7 ff ff       	callq  3250 <puts@plt>
    3a8b:	bf 03 00 00 00       	mov    $0x3,%edi
    3a90:	e8 eb f8 ff ff       	callq  3380 <sleep@plt>
    3a95:	48 8d 35 a2 19 00 00 	lea    0x19a2(%rip),%rsi        # 543e <array.3483+0x25e>
    3a9c:	bf 01 00 00 00       	mov    $0x1,%edi
    3aa1:	b8 00 00 00 00       	mov    $0x0,%eax
    3aa6:	e8 75 f8 ff ff       	callq  3320 <__printf_chk@plt>
    3aab:	48 8b 3d ce 4f 00 00 	mov    0x4fce(%rip),%rdi        # 8a80 <stdout@@GLIBC_2.2.5>
    3ab2:	e8 49 f8 ff ff       	callq  3300 <fflush@plt>
    3ab7:	bf 01 00 00 00       	mov    $0x1,%edi
    3abc:	e8 bf f8 ff ff       	callq  3380 <sleep@plt>
    3ac1:	48 8d 3d 7e 19 00 00 	lea    0x197e(%rip),%rdi        # 5446 <array.3483+0x266>
    3ac8:	e8 83 f7 ff ff       	callq  3250 <puts@plt>
    3acd:	bf 10 00 00 00       	mov    $0x10,%edi
    3ad2:	e8 79 f8 ff ff       	callq  3350 <exit@plt>

0000000000003ad7 <invalid_phase>:
    3ad7:	f3 0f 1e fa          	endbr64 
    3adb:	50                   	push   %rax
    3adc:	58                   	pop    %rax
    3add:	48 83 ec 08          	sub    $0x8,%rsp
    3ae1:	48 89 fa             	mov    %rdi,%rdx
    3ae4:	48 8d 35 63 19 00 00 	lea    0x1963(%rip),%rsi        # 544e <array.3483+0x26e>
    3aeb:	bf 01 00 00 00       	mov    $0x1,%edi
    3af0:	b8 00 00 00 00       	mov    $0x0,%eax
    3af5:	e8 26 f8 ff ff       	callq  3320 <__printf_chk@plt>
    3afa:	bf 08 00 00 00       	mov    $0x8,%edi
    3aff:	e8 4c f8 ff ff       	callq  3350 <exit@plt>

0000000000003b04 <string_length>:
    3b04:	f3 0f 1e fa          	endbr64 
    3b08:	80 3f 00             	cmpb   $0x0,(%rdi)
    3b0b:	74 12                	je     3b1f <string_length+0x1b>
    3b0d:	b8 00 00 00 00       	mov    $0x0,%eax
    3b12:	48 83 c7 01          	add    $0x1,%rdi
    3b16:	83 c0 01             	add    $0x1,%eax
    3b19:	80 3f 00             	cmpb   $0x0,(%rdi)
    3b1c:	75 f4                	jne    3b12 <string_length+0xe>
    3b1e:	c3                   	retq   
    3b1f:	b8 00 00 00 00       	mov    $0x0,%eax
    3b24:	c3                   	retq   

0000000000003b25 <strings_not_equal>:
    3b25:	f3 0f 1e fa          	endbr64 
    3b29:	41 54                	push   %r12
    3b2b:	55                   	push   %rbp
    3b2c:	53                   	push   %rbx
    3b2d:	48 89 fb             	mov    %rdi,%rbx
    3b30:	48 89 f5             	mov    %rsi,%rbp
    3b33:	e8 cc ff ff ff       	callq  3b04 <string_length>
    3b38:	41 89 c4             	mov    %eax,%r12d
    3b3b:	48 89 ef             	mov    %rbp,%rdi
    3b3e:	e8 c1 ff ff ff       	callq  3b04 <string_length>
    3b43:	89 c2                	mov    %eax,%edx
    3b45:	b8 01 00 00 00       	mov    $0x1,%eax
    3b4a:	41 39 d4             	cmp    %edx,%r12d
    3b4d:	75 31                	jne    3b80 <strings_not_equal+0x5b>
    3b4f:	0f b6 13             	movzbl (%rbx),%edx
    3b52:	84 d2                	test   %dl,%dl
    3b54:	74 1e                	je     3b74 <strings_not_equal+0x4f>
    3b56:	b8 00 00 00 00       	mov    $0x0,%eax
    3b5b:	38 54 05 00          	cmp    %dl,0x0(%rbp,%rax,1)
    3b5f:	75 1a                	jne    3b7b <strings_not_equal+0x56>
    3b61:	48 83 c0 01          	add    $0x1,%rax
    3b65:	0f b6 14 03          	movzbl (%rbx,%rax,1),%edx
    3b69:	84 d2                	test   %dl,%dl
    3b6b:	75 ee                	jne    3b5b <strings_not_equal+0x36>
    3b6d:	b8 00 00 00 00       	mov    $0x0,%eax
    3b72:	eb 0c                	jmp    3b80 <strings_not_equal+0x5b>
    3b74:	b8 00 00 00 00       	mov    $0x0,%eax
    3b79:	eb 05                	jmp    3b80 <strings_not_equal+0x5b>
    3b7b:	b8 01 00 00 00       	mov    $0x1,%eax
    3b80:	5b                   	pop    %rbx
    3b81:	5d                   	pop    %rbp
    3b82:	41 5c                	pop    %r12
    3b84:	c3                   	retq   

0000000000003b85 <initialize_bomb>:
    3b85:	f3 0f 1e fa          	endbr64 
    3b89:	55                   	push   %rbp
    3b8a:	53                   	push   %rbx
    3b8b:	48 81 ec 00 10 00 00 	sub    $0x1000,%rsp
    3b92:	48 83 0c 24 00       	orq    $0x0,(%rsp)
    3b97:	48 81 ec 00 10 00 00 	sub    $0x1000,%rsp
    3b9e:	48 83 0c 24 00       	orq    $0x0,(%rsp)
    3ba3:	48 83 ec 58          	sub    $0x58,%rsp
    3ba7:	64 48 8b 04 25 28 00 	mov    %fs:0x28,%rax
    3bae:	00 00 
    3bb0:	48 89 84 24 48 20 00 	mov    %rax,0x2048(%rsp)
    3bb7:	00 
    3bb8:	31 c0                	xor    %eax,%eax
    3bba:	48 8d 35 b4 fe ff ff 	lea    -0x14c(%rip),%rsi        # 3a75 <sig_handler>
    3bc1:	bf 02 00 00 00       	mov    $0x2,%edi
    3bc6:	e8 f5 f6 ff ff       	callq  32c0 <signal@plt>
    3bcb:	48 89 e7             	mov    %rsp,%rdi
    3bce:	be 40 00 00 00       	mov    $0x40,%esi
    3bd3:	e8 68 f7 ff ff       	callq  3340 <gethostname@plt>
    3bd8:	85 c0                	test   %eax,%eax
    3bda:	0f 85 9b 00 00 00    	jne    3c7b <initialize_bomb+0xf6>
    3be0:	48 8b 3d 99 46 00 00 	mov    0x4699(%rip),%rdi        # 8280 <host_table>
    3be7:	48 8d 1d 9a 46 00 00 	lea    0x469a(%rip),%rbx        # 8288 <host_table+0x8>
    3bee:	48 89 e5             	mov    %rsp,%rbp
    3bf1:	48 85 ff             	test   %rdi,%rdi
    3bf4:	74 1d                	je     3c13 <initialize_bomb+0x8e>
    3bf6:	48 89 ee             	mov    %rbp,%rsi
    3bf9:	e8 22 f6 ff ff       	callq  3220 <strcasecmp@plt>
    3bfe:	85 c0                	test   %eax,%eax
    3c00:	0f 84 b0 00 00 00    	je     3cb6 <initialize_bomb+0x131>
    3c06:	48 83 c3 08          	add    $0x8,%rbx
    3c0a:	48 8b 7b f8          	mov    -0x8(%rbx),%rdi
    3c0e:	48 85 ff             	test   %rdi,%rdi
    3c11:	75 e3                	jne    3bf6 <initialize_bomb+0x71>
    3c13:	48 89 e2             	mov    %rsp,%rdx
    3c16:	48 8d 35 73 16 00 00 	lea    0x1673(%rip),%rsi        # 5290 <array.3483+0xb0>
    3c1d:	bf 01 00 00 00       	mov    $0x1,%edi
    3c22:	b8 00 00 00 00       	mov    $0x0,%eax
    3c27:	e8 f4 f6 ff ff       	callq  3320 <__printf_chk@plt>
    3c2c:	48 8d 3d 4c 18 00 00 	lea    0x184c(%rip),%rdi        # 547f <array.3483+0x29f>
    3c33:	e8 18 f6 ff ff       	callq  3250 <puts@plt>
    3c38:	48 8b 15 41 46 00 00 	mov    0x4641(%rip),%rdx        # 8280 <host_table>
    3c3f:	48 8d 1d 42 46 00 00 	lea    0x4642(%rip),%rbx        # 8288 <host_table+0x8>
    3c46:	48 8d 2d 12 18 00 00 	lea    0x1812(%rip),%rbp        # 545f <array.3483+0x27f>
    3c4d:	48 85 d2             	test   %rdx,%rdx
    3c50:	74 1f                	je     3c71 <initialize_bomb+0xec>
    3c52:	48 89 ee             	mov    %rbp,%rsi
    3c55:	bf 01 00 00 00       	mov    $0x1,%edi
    3c5a:	b8 00 00 00 00       	mov    $0x0,%eax
    3c5f:	e8 bc f6 ff ff       	callq  3320 <__printf_chk@plt>
    3c64:	48 83 c3 08          	add    $0x8,%rbx
    3c68:	48 8b 53 f8          	mov    -0x8(%rbx),%rdx
    3c6c:	48 85 d2             	test   %rdx,%rdx
    3c6f:	75 e1                	jne    3c52 <initialize_bomb+0xcd>
    3c71:	bf 08 00 00 00       	mov    $0x8,%edi
    3c76:	e8 d5 f6 ff ff       	callq  3350 <exit@plt>
    3c7b:	48 8d 3d d6 15 00 00 	lea    0x15d6(%rip),%rdi        # 5258 <array.3483+0x78>
    3c82:	e8 c9 f5 ff ff       	callq  3250 <puts@plt>
    3c87:	bf 08 00 00 00       	mov    $0x8,%edi
    3c8c:	e8 bf f6 ff ff       	callq  3350 <exit@plt>
    3c91:	48 8d 54 24 40       	lea    0x40(%rsp),%rdx
    3c96:	48 8d 35 c8 17 00 00 	lea    0x17c8(%rip),%rsi        # 5465 <array.3483+0x285>
    3c9d:	bf 01 00 00 00       	mov    $0x1,%edi
    3ca2:	b8 00 00 00 00       	mov    $0x0,%eax
    3ca7:	e8 74 f6 ff ff       	callq  3320 <__printf_chk@plt>
    3cac:	bf 08 00 00 00       	mov    $0x8,%edi
    3cb1:	e8 9a f6 ff ff       	callq  3350 <exit@plt>
    3cb6:	48 8d 7c 24 40       	lea    0x40(%rsp),%rdi
    3cbb:	e8 09 0f 00 00       	callq  4bc9 <init_driver>
    3cc0:	85 c0                	test   %eax,%eax
    3cc2:	78 cd                	js     3c91 <initialize_bomb+0x10c>
    3cc4:	48 8b 84 24 48 20 00 	mov    0x2048(%rsp),%rax
    3ccb:	00 
    3ccc:	64 48 33 04 25 28 00 	xor    %fs:0x28,%rax
    3cd3:	00 00 
    3cd5:	75 0a                	jne    3ce1 <initialize_bomb+0x15c>
    3cd7:	48 81 c4 58 20 00 00 	add    $0x2058,%rsp
    3cde:	5b                   	pop    %rbx
    3cdf:	5d                   	pop    %rbp
    3ce0:	c3                   	retq   
    3ce1:	e8 8a f5 ff ff       	callq  3270 <__stack_chk_fail@plt>

0000000000003ce6 <initialize_bomb_solve>:
    3ce6:	f3 0f 1e fa          	endbr64 
    3cea:	c3                   	retq   

0000000000003ceb <blank_line>:
    3ceb:	f3 0f 1e fa          	endbr64 
    3cef:	55                   	push   %rbp
    3cf0:	53                   	push   %rbx
    3cf1:	48 83 ec 08          	sub    $0x8,%rsp
    3cf5:	48 89 fd             	mov    %rdi,%rbp
    3cf8:	0f b6 5d 00          	movzbl 0x0(%rbp),%ebx
    3cfc:	84 db                	test   %bl,%bl
    3cfe:	74 1e                	je     3d1e <blank_line+0x33>
    3d00:	e8 8b f6 ff ff       	callq  3390 <__ctype_b_loc@plt>
    3d05:	48 83 c5 01          	add    $0x1,%rbp
    3d09:	48 0f be db          	movsbq %bl,%rbx
    3d0d:	48 8b 00             	mov    (%rax),%rax
    3d10:	f6 44 58 01 20       	testb  $0x20,0x1(%rax,%rbx,2)
    3d15:	75 e1                	jne    3cf8 <blank_line+0xd>
    3d17:	b8 00 00 00 00       	mov    $0x0,%eax
    3d1c:	eb 05                	jmp    3d23 <blank_line+0x38>
    3d1e:	b8 01 00 00 00       	mov    $0x1,%eax
    3d23:	48 83 c4 08          	add    $0x8,%rsp
    3d27:	5b                   	pop    %rbx
    3d28:	5d                   	pop    %rbp
    3d29:	c3                   	retq   

0000000000003d2a <skip>:
    3d2a:	f3 0f 1e fa          	endbr64 
    3d2e:	55                   	push   %rbp
    3d2f:	53                   	push   %rbx
    3d30:	48 83 ec 08          	sub    $0x8,%rsp
    3d34:	48 8d 2d 85 4d 00 00 	lea    0x4d85(%rip),%rbp        # 8ac0 <input_strings>
    3d3b:	48 63 05 6a 4d 00 00 	movslq 0x4d6a(%rip),%rax        # 8aac <num_input_strings>
    3d42:	48 8d 3c 80          	lea    (%rax,%rax,4),%rdi
    3d46:	48 c1 e7 04          	shl    $0x4,%rdi
    3d4a:	48 01 ef             	add    %rbp,%rdi
    3d4d:	48 8b 15 5c 4d 00 00 	mov    0x4d5c(%rip),%rdx        # 8ab0 <infile>
    3d54:	be 50 00 00 00       	mov    $0x50,%esi
    3d59:	e8 52 f5 ff ff       	callq  32b0 <fgets@plt>
    3d5e:	48 89 c3             	mov    %rax,%rbx
    3d61:	48 85 c0             	test   %rax,%rax
    3d64:	74 0c                	je     3d72 <skip+0x48>
    3d66:	48 89 c7             	mov    %rax,%rdi
    3d69:	e8 7d ff ff ff       	callq  3ceb <blank_line>
    3d6e:	85 c0                	test   %eax,%eax
    3d70:	75 c9                	jne    3d3b <skip+0x11>
    3d72:	48 89 d8             	mov    %rbx,%rax
    3d75:	48 83 c4 08          	add    $0x8,%rsp
    3d79:	5b                   	pop    %rbx
    3d7a:	5d                   	pop    %rbp
    3d7b:	c3                   	retq   

0000000000003d7c <send_msg>:
    3d7c:	f3 0f 1e fa          	endbr64 
    3d80:	53                   	push   %rbx
    3d81:	4c 8d 9c 24 00 c0 ff 	lea    -0x4000(%rsp),%r11
    3d88:	ff 
    3d89:	48 81 ec 00 10 00 00 	sub    $0x1000,%rsp
    3d90:	48 83 0c 24 00       	orq    $0x0,(%rsp)
    3d95:	4c 39 dc             	cmp    %r11,%rsp
    3d98:	75 ef                	jne    3d89 <send_msg+0xd>
    3d9a:	48 83 ec 10          	sub    $0x10,%rsp
    3d9e:	64 48 8b 04 25 28 00 	mov    %fs:0x28,%rax
    3da5:	00 00 
    3da7:	48 89 84 24 08 40 00 	mov    %rax,0x4008(%rsp)
    3dae:	00 
    3daf:	31 c0                	xor    %eax,%eax
    3db1:	8b 15 f5 4c 00 00    	mov    0x4cf5(%rip),%edx        # 8aac <num_input_strings>
    3db7:	8d 42 ff             	lea    -0x1(%rdx),%eax
    3dba:	48 98                	cltq   
    3dbc:	48 8d 04 80          	lea    (%rax,%rax,4),%rax
    3dc0:	48 c1 e0 04          	shl    $0x4,%rax
    3dc4:	48 8d 0d f5 4c 00 00 	lea    0x4cf5(%rip),%rcx        # 8ac0 <input_strings>
    3dcb:	48 01 c8             	add    %rcx,%rax
    3dce:	85 ff                	test   %edi,%edi
    3dd0:	4c 8d 0d c4 16 00 00 	lea    0x16c4(%rip),%r9        # 549b <array.3483+0x2bb>
    3dd7:	48 8d 0d c5 16 00 00 	lea    0x16c5(%rip),%rcx        # 54a3 <array.3483+0x2c3>
    3dde:	4c 0f 44 c9          	cmove  %rcx,%r9
    3de2:	48 89 e3             	mov    %rsp,%rbx
    3de5:	50                   	push   %rax
    3de6:	52                   	push   %rdx
    3de7:	44 8b 05 56 43 00 00 	mov    0x4356(%rip),%r8d        # 8144 <bomb_id>
    3dee:	48 8d 0d b7 16 00 00 	lea    0x16b7(%rip),%rcx        # 54ac <array.3483+0x2cc>
    3df5:	ba 00 20 00 00       	mov    $0x2000,%edx
    3dfa:	be 01 00 00 00       	mov    $0x1,%esi
    3dff:	48 89 df             	mov    %rbx,%rdi
    3e02:	b8 00 00 00 00       	mov    $0x0,%eax
    3e07:	e8 94 f5 ff ff       	callq  33a0 <__sprintf_chk@plt>
    3e0c:	4c 8d 84 24 10 20 00 	lea    0x2010(%rsp),%r8
    3e13:	00 
    3e14:	b9 00 00 00 00       	mov    $0x0,%ecx
    3e19:	48 89 da             	mov    %rbx,%rdx
    3e1c:	48 8d 35 fd 42 00 00 	lea    0x42fd(%rip),%rsi        # 8120 <user_password>
    3e23:	48 8d 3d 0e 43 00 00 	lea    0x430e(%rip),%rdi        # 8138 <userid>
    3e2a:	e8 8f 0f 00 00       	callq  4dbe <driver_post>
    3e2f:	48 83 c4 10          	add    $0x10,%rsp
    3e33:	85 c0                	test   %eax,%eax
    3e35:	78 1c                	js     3e53 <send_msg+0xd7>
    3e37:	48 8b 84 24 08 40 00 	mov    0x4008(%rsp),%rax
    3e3e:	00 
    3e3f:	64 48 33 04 25 28 00 	xor    %fs:0x28,%rax
    3e46:	00 00 
    3e48:	75 20                	jne    3e6a <send_msg+0xee>
    3e4a:	48 81 c4 10 40 00 00 	add    $0x4010,%rsp
    3e51:	5b                   	pop    %rbx
    3e52:	c3                   	retq   
    3e53:	48 8d bc 24 00 20 00 	lea    0x2000(%rsp),%rdi
    3e5a:	00 
    3e5b:	e8 f0 f3 ff ff       	callq  3250 <puts@plt>
    3e60:	bf 00 00 00 00       	mov    $0x0,%edi
    3e65:	e8 e6 f4 ff ff       	callq  3350 <exit@plt>
    3e6a:	e8 01 f4 ff ff       	callq  3270 <__stack_chk_fail@plt>

0000000000003e6f <explode_bomb>:
    3e6f:	f3 0f 1e fa          	endbr64 
    3e73:	50                   	push   %rax
    3e74:	58                   	pop    %rax
    3e75:	48 83 ec 08          	sub    $0x8,%rsp
    3e79:	48 8d 3d 38 16 00 00 	lea    0x1638(%rip),%rdi        # 54b8 <array.3483+0x2d8>
    3e80:	e8 cb f3 ff ff       	callq  3250 <puts@plt>
    3e85:	48 8d 3d 35 16 00 00 	lea    0x1635(%rip),%rdi        # 54c1 <array.3483+0x2e1>
    3e8c:	e8 bf f3 ff ff       	callq  3250 <puts@plt>
    3e91:	bf 00 00 00 00       	mov    $0x0,%edi
    3e96:	e8 e1 fe ff ff       	callq  3d7c <send_msg>
    3e9b:	48 8d 3d 1e 14 00 00 	lea    0x141e(%rip),%rdi        # 52c0 <array.3483+0xe0>
    3ea2:	e8 a9 f3 ff ff       	callq  3250 <puts@plt>
    3ea7:	bf 08 00 00 00       	mov    $0x8,%edi
    3eac:	e8 9f f4 ff ff       	callq  3350 <exit@plt>

0000000000003eb1 <read_six_numbers>:
    3eb1:	f3 0f 1e fa          	endbr64 
    3eb5:	48 83 ec 08          	sub    $0x8,%rsp
    3eb9:	48 89 f2             	mov    %rsi,%rdx
    3ebc:	48 8d 4e 04          	lea    0x4(%rsi),%rcx
    3ec0:	48 8d 46 14          	lea    0x14(%rsi),%rax
    3ec4:	50                   	push   %rax
    3ec5:	48 8d 46 10          	lea    0x10(%rsi),%rax
    3ec9:	50                   	push   %rax
    3eca:	4c 8d 4e 0c          	lea    0xc(%rsi),%r9
    3ece:	4c 8d 46 08          	lea    0x8(%rsi),%r8
    3ed2:	48 8d 35 ff 15 00 00 	lea    0x15ff(%rip),%rsi        # 54d8 <array.3483+0x2f8>
    3ed9:	b8 00 00 00 00       	mov    $0x0,%eax
    3ede:	e8 2d f4 ff ff       	callq  3310 <__isoc99_sscanf@plt>
    3ee3:	48 83 c4 10          	add    $0x10,%rsp
    3ee7:	83 f8 05             	cmp    $0x5,%eax
    3eea:	7e 05                	jle    3ef1 <read_six_numbers+0x40>
    3eec:	48 83 c4 08          	add    $0x8,%rsp
    3ef0:	c3                   	retq   
    3ef1:	e8 79 ff ff ff       	callq  3e6f <explode_bomb>

0000000000003ef6 <read_line>:
    3ef6:	f3 0f 1e fa          	endbr64 
    3efa:	48 83 ec 08          	sub    $0x8,%rsp
    3efe:	b8 00 00 00 00       	mov    $0x0,%eax
    3f03:	e8 22 fe ff ff       	callq  3d2a <skip>
    3f08:	48 85 c0             	test   %rax,%rax
    3f0b:	74 6f                	je     3f7c <read_line+0x86>
    3f0d:	8b 35 99 4b 00 00    	mov    0x4b99(%rip),%esi        # 8aac <num_input_strings>
    3f13:	48 63 c6             	movslq %esi,%rax
    3f16:	48 8d 14 80          	lea    (%rax,%rax,4),%rdx
    3f1a:	48 c1 e2 04          	shl    $0x4,%rdx
    3f1e:	48 8d 05 9b 4b 00 00 	lea    0x4b9b(%rip),%rax        # 8ac0 <input_strings>
    3f25:	48 01 c2             	add    %rax,%rdx
    3f28:	48 c7 c1 ff ff ff ff 	mov    $0xffffffffffffffff,%rcx
    3f2f:	b8 00 00 00 00       	mov    $0x0,%eax
    3f34:	48 89 d7             	mov    %rdx,%rdi
    3f37:	f2 ae                	repnz scas %es:(%rdi),%al
    3f39:	48 f7 d1             	not    %rcx
    3f3c:	48 83 e9 01          	sub    $0x1,%rcx
    3f40:	83 f9 4e             	cmp    $0x4e,%ecx
    3f43:	0f 8f ab 00 00 00    	jg     3ff4 <read_line+0xfe>
    3f49:	83 e9 01             	sub    $0x1,%ecx
    3f4c:	48 63 c9             	movslq %ecx,%rcx
    3f4f:	48 63 c6             	movslq %esi,%rax
    3f52:	48 8d 04 80          	lea    (%rax,%rax,4),%rax
    3f56:	48 c1 e0 04          	shl    $0x4,%rax
    3f5a:	48 89 c7             	mov    %rax,%rdi
    3f5d:	48 8d 05 5c 4b 00 00 	lea    0x4b5c(%rip),%rax        # 8ac0 <input_strings>
    3f64:	48 01 f8             	add    %rdi,%rax
    3f67:	c6 04 08 00          	movb   $0x0,(%rax,%rcx,1)
    3f6b:	83 c6 01             	add    $0x1,%esi
    3f6e:	89 35 38 4b 00 00    	mov    %esi,0x4b38(%rip)        # 8aac <num_input_strings>
    3f74:	48 89 d0             	mov    %rdx,%rax
    3f77:	48 83 c4 08          	add    $0x8,%rsp
    3f7b:	c3                   	retq   
    3f7c:	48 8b 05 0d 4b 00 00 	mov    0x4b0d(%rip),%rax        # 8a90 <stdin@@GLIBC_2.2.5>
    3f83:	48 39 05 26 4b 00 00 	cmp    %rax,0x4b26(%rip)        # 8ab0 <infile>
    3f8a:	74 1b                	je     3fa7 <read_line+0xb1>
    3f8c:	48 8d 3d 75 15 00 00 	lea    0x1575(%rip),%rdi        # 5508 <array.3483+0x328>
    3f93:	e8 68 f2 ff ff       	callq  3200 <getenv@plt>
    3f98:	48 85 c0             	test   %rax,%rax
    3f9b:	74 20                	je     3fbd <read_line+0xc7>
    3f9d:	bf 00 00 00 00       	mov    $0x0,%edi
    3fa2:	e8 a9 f3 ff ff       	callq  3350 <exit@plt>
    3fa7:	48 8d 3d 3c 15 00 00 	lea    0x153c(%rip),%rdi        # 54ea <array.3483+0x30a>
    3fae:	e8 9d f2 ff ff       	callq  3250 <puts@plt>
    3fb3:	bf 08 00 00 00       	mov    $0x8,%edi
    3fb8:	e8 93 f3 ff ff       	callq  3350 <exit@plt>
    3fbd:	48 8b 05 cc 4a 00 00 	mov    0x4acc(%rip),%rax        # 8a90 <stdin@@GLIBC_2.2.5>
    3fc4:	48 89 05 e5 4a 00 00 	mov    %rax,0x4ae5(%rip)        # 8ab0 <infile>
    3fcb:	b8 00 00 00 00       	mov    $0x0,%eax
    3fd0:	e8 55 fd ff ff       	callq  3d2a <skip>
    3fd5:	48 85 c0             	test   %rax,%rax
    3fd8:	0f 85 2f ff ff ff    	jne    3f0d <read_line+0x17>
    3fde:	48 8d 3d 05 15 00 00 	lea    0x1505(%rip),%rdi        # 54ea <array.3483+0x30a>
    3fe5:	e8 66 f2 ff ff       	callq  3250 <puts@plt>
    3fea:	bf 00 00 00 00       	mov    $0x0,%edi
    3fef:	e8 5c f3 ff ff       	callq  3350 <exit@plt>
    3ff4:	48 8d 3d 18 15 00 00 	lea    0x1518(%rip),%rdi        # 5513 <array.3483+0x333>
    3ffb:	e8 50 f2 ff ff       	callq  3250 <puts@plt>
    4000:	8b 05 a6 4a 00 00    	mov    0x4aa6(%rip),%eax        # 8aac <num_input_strings>
    4006:	8d 50 01             	lea    0x1(%rax),%edx
    4009:	89 15 9d 4a 00 00    	mov    %edx,0x4a9d(%rip)        # 8aac <num_input_strings>
    400f:	48 98                	cltq   
    4011:	48 6b c0 50          	imul   $0x50,%rax,%rax
    4015:	48 8d 15 a4 4a 00 00 	lea    0x4aa4(%rip),%rdx        # 8ac0 <input_strings>
    401c:	48 be 2a 2a 2a 74 72 	movabs $0x636e7572742a2a2a,%rsi
    4023:	75 6e 63 
    4026:	48 bf 61 74 65 64 2a 	movabs $0x2a2a2a64657461,%rdi
    402d:	2a 2a 00 
    4030:	48 89 34 02          	mov    %rsi,(%rdx,%rax,1)
    4034:	48 89 7c 02 08       	mov    %rdi,0x8(%rdx,%rax,1)
    4039:	e8 31 fe ff ff       	callq  3e6f <explode_bomb>

000000000000403e <phase_defused>:
    403e:	f3 0f 1e fa          	endbr64 
    4042:	48 81 ec 98 00 00 00 	sub    $0x98,%rsp
    4049:	64 48 8b 04 25 28 00 	mov    %fs:0x28,%rax
    4050:	00 00 
    4052:	48 89 84 24 88 00 00 	mov    %rax,0x88(%rsp)
    4059:	00 
    405a:	31 c0                	xor    %eax,%eax
    405c:	bf 01 00 00 00       	mov    $0x1,%edi
    4061:	e8 16 fd ff ff       	callq  3d7c <send_msg>
    4066:	83 3d 3f 4a 00 00 06 	cmpl   $0x6,0x4a3f(%rip)        # 8aac <num_input_strings>
    406d:	74 1f                	je     408e <phase_defused+0x50>
    406f:	48 8b 84 24 88 00 00 	mov    0x88(%rsp),%rax
    4076:	00 
    4077:	64 48 33 04 25 28 00 	xor    %fs:0x28,%rax
    407e:	00 00 
    4080:	0f 85 77 01 00 00    	jne    41fd <phase_defused+0x1bf>
    4086:	48 81 c4 98 00 00 00 	add    $0x98,%rsp
    408d:	c3                   	retq   
    408e:	48 8d 54 24 10       	lea    0x10(%rsp),%rdx
    4093:	48 8d 4c 24 14       	lea    0x14(%rsp),%rcx
    4098:	48 83 ec 08          	sub    $0x8,%rsp
    409c:	48 8d 44 24 38       	lea    0x38(%rsp),%rax
    40a1:	50                   	push   %rax
    40a2:	48 8d 44 24 34       	lea    0x34(%rsp),%rax
    40a7:	50                   	push   %rax
    40a8:	48 8d 44 24 38       	lea    0x38(%rsp),%rax
    40ad:	50                   	push   %rax
    40ae:	4c 8d 4c 24 3c       	lea    0x3c(%rsp),%r9
    40b3:	4c 8d 44 24 38       	lea    0x38(%rsp),%r8
    40b8:	48 8d 35 6f 14 00 00 	lea    0x146f(%rip),%rsi        # 552e <array.3483+0x34e>
    40bf:	48 8d 3d 4a 4a 00 00 	lea    0x4a4a(%rip),%rdi        # 8b10 <input_strings+0x50>
    40c6:	b8 00 00 00 00       	mov    $0x0,%eax
    40cb:	e8 40 f2 ff ff       	callq  3310 <__isoc99_sscanf@plt>
    40d0:	48 83 c4 20          	add    $0x20,%rsp
    40d4:	83 f8 07             	cmp    $0x7,%eax
    40d7:	0f 84 e0 00 00 00    	je     41bd <phase_defused+0x17f>
    40dd:	48 8d 3d 6c 12 00 00 	lea    0x126c(%rip),%rdi        # 5350 <array.3483+0x170>
    40e4:	e8 67 f1 ff ff       	callq  3250 <puts@plt>
    40e9:	48 8d 3d 90 12 00 00 	lea    0x1290(%rip),%rdi        # 5380 <array.3483+0x1a0>
    40f0:	e8 5b f1 ff ff       	callq  3250 <puts@plt>
    40f5:	48 8d 4c 24 0c       	lea    0xc(%rsp),%rcx
    40fa:	48 8d 54 24 08       	lea    0x8(%rsp),%rdx
    40ff:	4c 8d 44 24 30       	lea    0x30(%rsp),%r8
    4104:	48 8d 35 2f 14 00 00 	lea    0x142f(%rip),%rsi        # 553a <array.3483+0x35a>
    410b:	48 8d 3d 9e 4a 00 00 	lea    0x4a9e(%rip),%rdi        # 8bb0 <input_strings+0xf0>
    4112:	b8 00 00 00 00       	mov    $0x0,%eax
    4117:	e8 f4 f1 ff ff       	callq  3310 <__isoc99_sscanf@plt>
    411c:	83 f8 03             	cmp    $0x3,%eax
    411f:	0f 85 4a ff ff ff    	jne    406f <phase_defused+0x31>
    4125:	48 8d 7c 24 30       	lea    0x30(%rsp),%rdi
    412a:	48 8d 35 20 14 00 00 	lea    0x1420(%rip),%rsi        # 5551 <array.3483+0x371>
    4131:	e8 ef f9 ff ff       	callq  3b25 <strings_not_equal>
    4136:	85 c0                	test   %eax,%eax
    4138:	0f 85 31 ff ff ff    	jne    406f <phase_defused+0x31>
    413e:	48 8d 3d 38 14 00 00 	lea    0x1438(%rip),%rdi        # 557d <array.3483+0x39d>
    4145:	e8 06 f1 ff ff       	callq  3250 <puts@plt>
    414a:	bf 02 00 00 00       	mov    $0x2,%edi
    414f:	e8 2c f2 ff ff       	callq  3380 <sleep@plt>
    4154:	48 8d 3d fd 13 00 00 	lea    0x13fd(%rip),%rdi        # 5558 <array.3483+0x378>
    415b:	e8 f0 f0 ff ff       	callq  3250 <puts@plt>
    4160:	bf 03 00 00 00       	mov    $0x3,%edi
    4165:	e8 16 f2 ff ff       	callq  3380 <sleep@plt>
    416a:	48 8d 3d fa 13 00 00 	lea    0x13fa(%rip),%rdi        # 556b <array.3483+0x38b>
    4171:	e8 da f0 ff ff       	callq  3250 <puts@plt>
    4176:	bf 04 00 00 00       	mov    $0x4,%edi
    417b:	e8 00 f2 ff ff       	callq  3380 <sleep@plt>
    4180:	48 8d 3d fa 13 00 00 	lea    0x13fa(%rip),%rdi        # 5581 <array.3483+0x3a1>
    4187:	e8 c4 f0 ff ff       	callq  3250 <puts@plt>
    418c:	bf 05 00 00 00       	mov    $0x5,%edi
    4191:	e8 ea f1 ff ff       	callq  3380 <sleep@plt>
    4196:	48 8d 3d 2b 12 00 00 	lea    0x122b(%rip),%rdi        # 53c8 <array.3483+0x1e8>
    419d:	e8 ae f0 ff ff       	callq  3250 <puts@plt>
    41a2:	bf 05 00 00 00       	mov    $0x5,%edi
    41a7:	e8 d4 f1 ff ff       	callq  3380 <sleep@plt>
    41ac:	48 8d 3d 4d 12 00 00 	lea    0x124d(%rip),%rdi        # 5400 <array.3483+0x220>
    41b3:	e8 98 f0 ff ff       	callq  3250 <puts@plt>
    41b8:	e9 b2 fe ff ff       	jmpq   406f <phase_defused+0x31>
    41bd:	48 8d 7c 24 30       	lea    0x30(%rsp),%rdi
    41c2:	48 8d 35 7a 13 00 00 	lea    0x137a(%rip),%rsi        # 5543 <array.3483+0x363>
    41c9:	e8 57 f9 ff ff       	callq  3b25 <strings_not_equal>
    41ce:	85 c0                	test   %eax,%eax
    41d0:	0f 85 07 ff ff ff    	jne    40dd <phase_defused+0x9f>
    41d6:	48 8d 3d 0b 11 00 00 	lea    0x110b(%rip),%rdi        # 52e8 <array.3483+0x108>
    41dd:	e8 6e f0 ff ff       	callq  3250 <puts@plt>
    41e2:	48 8d 3d 2f 11 00 00 	lea    0x112f(%rip),%rdi        # 5318 <array.3483+0x138>
    41e9:	e8 62 f0 ff ff       	callq  3250 <puts@plt>
    41ee:	b8 00 00 00 00       	mov    $0x0,%eax
    41f3:	e8 20 f8 ff ff       	callq  3a18 <secret_phase>
    41f8:	e9 e0 fe ff ff       	jmpq   40dd <phase_defused+0x9f>
    41fd:	e8 6e f0 ff ff       	callq  3270 <__stack_chk_fail@plt>

0000000000004202 <sigalrm_handler>:
    4202:	f3 0f 1e fa          	endbr64 
    4206:	50                   	push   %rax
    4207:	58                   	pop    %rax
    4208:	48 83 ec 08          	sub    $0x8,%rsp
    420c:	b9 00 00 00 00       	mov    $0x0,%ecx
    4211:	48 8d 15 88 1e 00 00 	lea    0x1e88(%rip),%rdx        # 60a0 <array.3483+0xec0>
    4218:	be 01 00 00 00       	mov    $0x1,%esi
    421d:	48 8b 3d 7c 48 00 00 	mov    0x487c(%rip),%rdi        # 8aa0 <stderr@@GLIBC_2.2.5>
    4224:	b8 00 00 00 00       	mov    $0x0,%eax
    4229:	e8 42 f1 ff ff       	callq  3370 <__fprintf_chk@plt>
    422e:	bf 01 00 00 00       	mov    $0x1,%edi
    4233:	e8 18 f1 ff ff       	callq  3350 <exit@plt>

0000000000004238 <rio_readlineb>:
    4238:	41 56                	push   %r14
    423a:	41 55                	push   %r13
    423c:	41 54                	push   %r12
    423e:	55                   	push   %rbp
    423f:	53                   	push   %rbx
    4240:	48 89 f5             	mov    %rsi,%rbp
    4243:	48 83 fa 01          	cmp    $0x1,%rdx
    4247:	0f 86 90 00 00 00    	jbe    42dd <rio_readlineb+0xa5>
    424d:	48 89 fb             	mov    %rdi,%rbx
    4250:	4c 8d 74 16 ff       	lea    -0x1(%rsi,%rdx,1),%r14
    4255:	41 bd 01 00 00 00    	mov    $0x1,%r13d
    425b:	4c 8d 67 10          	lea    0x10(%rdi),%r12
    425f:	eb 54                	jmp    42b5 <rio_readlineb+0x7d>
    4261:	e8 ca ef ff ff       	callq  3230 <__errno_location@plt>
    4266:	83 38 04             	cmpl   $0x4,(%rax)
    4269:	75 53                	jne    42be <rio_readlineb+0x86>
    426b:	ba 00 20 00 00       	mov    $0x2000,%edx
    4270:	4c 89 e6             	mov    %r12,%rsi
    4273:	8b 3b                	mov    (%rbx),%edi
    4275:	e8 26 f0 ff ff       	callq  32a0 <read@plt>
    427a:	89 c2                	mov    %eax,%edx
    427c:	89 43 04             	mov    %eax,0x4(%rbx)
    427f:	85 c0                	test   %eax,%eax
    4281:	78 de                	js     4261 <rio_readlineb+0x29>
    4283:	85 c0                	test   %eax,%eax
    4285:	74 40                	je     42c7 <rio_readlineb+0x8f>
    4287:	4c 89 63 08          	mov    %r12,0x8(%rbx)
    428b:	48 8b 43 08          	mov    0x8(%rbx),%rax
    428f:	0f b6 08             	movzbl (%rax),%ecx
    4292:	48 83 c0 01          	add    $0x1,%rax
    4296:	48 89 43 08          	mov    %rax,0x8(%rbx)
    429a:	83 ea 01             	sub    $0x1,%edx
    429d:	89 53 04             	mov    %edx,0x4(%rbx)
    42a0:	48 83 c5 01          	add    $0x1,%rbp
    42a4:	88 4d ff             	mov    %cl,-0x1(%rbp)
    42a7:	80 f9 0a             	cmp    $0xa,%cl
    42aa:	74 3c                	je     42e8 <rio_readlineb+0xb0>
    42ac:	41 83 c5 01          	add    $0x1,%r13d
    42b0:	4c 39 f5             	cmp    %r14,%rbp
    42b3:	74 30                	je     42e5 <rio_readlineb+0xad>
    42b5:	8b 53 04             	mov    0x4(%rbx),%edx
    42b8:	85 d2                	test   %edx,%edx
    42ba:	7e af                	jle    426b <rio_readlineb+0x33>
    42bc:	eb cd                	jmp    428b <rio_readlineb+0x53>
    42be:	48 c7 c0 ff ff ff ff 	mov    $0xffffffffffffffff,%rax
    42c5:	eb 05                	jmp    42cc <rio_readlineb+0x94>
    42c7:	b8 00 00 00 00       	mov    $0x0,%eax
    42cc:	85 c0                	test   %eax,%eax
    42ce:	75 28                	jne    42f8 <rio_readlineb+0xc0>
    42d0:	b8 00 00 00 00       	mov    $0x0,%eax
    42d5:	41 83 fd 01          	cmp    $0x1,%r13d
    42d9:	75 0d                	jne    42e8 <rio_readlineb+0xb0>
    42db:	eb 12                	jmp    42ef <rio_readlineb+0xb7>
    42dd:	41 bd 01 00 00 00    	mov    $0x1,%r13d
    42e3:	eb 03                	jmp    42e8 <rio_readlineb+0xb0>
    42e5:	4c 89 f5             	mov    %r14,%rbp
    42e8:	c6 45 00 00          	movb   $0x0,0x0(%rbp)
    42ec:	49 63 c5             	movslq %r13d,%rax
    42ef:	5b                   	pop    %rbx
    42f0:	5d                   	pop    %rbp
    42f1:	41 5c                	pop    %r12
    42f3:	41 5d                	pop    %r13
    42f5:	41 5e                	pop    %r14
    42f7:	c3                   	retq   
    42f8:	48 c7 c0 ff ff ff ff 	mov    $0xffffffffffffffff,%rax
    42ff:	eb ee                	jmp    42ef <rio_readlineb+0xb7>

0000000000004301 <submitr>:
    4301:	f3 0f 1e fa          	endbr64 
    4305:	41 57                	push   %r15
    4307:	41 56                	push   %r14
    4309:	41 55                	push   %r13
    430b:	41 54                	push   %r12
    430d:	55                   	push   %rbp
    430e:	53                   	push   %rbx
    430f:	4c 8d 9c 24 00 60 ff 	lea    -0xa000(%rsp),%r11
    4316:	ff 
    4317:	48 81 ec 00 10 00 00 	sub    $0x1000,%rsp
    431e:	48 83 0c 24 00       	orq    $0x0,(%rsp)
    4323:	4c 39 dc             	cmp    %r11,%rsp
    4326:	75 ef                	jne    4317 <submitr+0x16>
    4328:	48 83 ec 68          	sub    $0x68,%rsp
    432c:	49 89 fd             	mov    %rdi,%r13
    432f:	89 f5                	mov    %esi,%ebp
    4331:	48 89 14 24          	mov    %rdx,(%rsp)
    4335:	48 89 4c 24 08       	mov    %rcx,0x8(%rsp)
    433a:	4c 89 44 24 18       	mov    %r8,0x18(%rsp)
    433f:	4c 89 4c 24 10       	mov    %r9,0x10(%rsp)
    4344:	48 8b 9c 24 a0 a0 00 	mov    0xa0a0(%rsp),%rbx
    434b:	00 
    434c:	4c 8b bc 24 a8 a0 00 	mov    0xa0a8(%rsp),%r15
    4353:	00 
    4354:	64 48 8b 04 25 28 00 	mov    %fs:0x28,%rax
    435b:	00 00 
    435d:	48 89 84 24 58 a0 00 	mov    %rax,0xa058(%rsp)
    4364:	00 
    4365:	31 c0                	xor    %eax,%eax
    4367:	c7 44 24 2c 00 00 00 	movl   $0x0,0x2c(%rsp)
    436e:	00 
    436f:	ba 00 00 00 00       	mov    $0x0,%edx
    4374:	be 01 00 00 00       	mov    $0x1,%esi
    4379:	bf 02 00 00 00       	mov    $0x2,%edi
    437e:	e8 2d f0 ff ff       	callq  33b0 <socket@plt>
    4383:	85 c0                	test   %eax,%eax
    4385:	0f 88 17 01 00 00    	js     44a2 <submitr+0x1a1>
    438b:	41 89 c4             	mov    %eax,%r12d
    438e:	4c 89 ef             	mov    %r13,%rdi
    4391:	e8 3a ef ff ff       	callq  32d0 <gethostbyname@plt>
    4396:	48 85 c0             	test   %rax,%rax
    4399:	0f 84 53 01 00 00    	je     44f2 <submitr+0x1f1>
    439f:	4c 8d 6c 24 30       	lea    0x30(%rsp),%r13
    43a4:	48 c7 44 24 30 00 00 	movq   $0x0,0x30(%rsp)
    43ab:	00 00 
    43ad:	48 c7 44 24 38 00 00 	movq   $0x0,0x38(%rsp)
    43b4:	00 00 
    43b6:	66 c7 44 24 30 02 00 	movw   $0x2,0x30(%rsp)
    43bd:	48 63 50 14          	movslq 0x14(%rax),%rdx
    43c1:	48 8b 40 18          	mov    0x18(%rax),%rax
    43c5:	48 8d 7c 24 34       	lea    0x34(%rsp),%rdi
    43ca:	b9 0c 00 00 00       	mov    $0xc,%ecx
    43cf:	48 8b 30             	mov    (%rax),%rsi
    43d2:	e8 09 ef ff ff       	callq  32e0 <__memmove_chk@plt>
    43d7:	66 c1 c5 08          	rol    $0x8,%bp
    43db:	66 89 6c 24 32       	mov    %bp,0x32(%rsp)
    43e0:	ba 10 00 00 00       	mov    $0x10,%edx
    43e5:	4c 89 ee             	mov    %r13,%rsi
    43e8:	44 89 e7             	mov    %r12d,%edi
    43eb:	e8 70 ef ff ff       	callq  3360 <connect@plt>
    43f0:	85 c0                	test   %eax,%eax
    43f2:	0f 88 65 01 00 00    	js     455d <submitr+0x25c>
    43f8:	49 c7 c1 ff ff ff ff 	mov    $0xffffffffffffffff,%r9
    43ff:	b8 00 00 00 00       	mov    $0x0,%eax
    4404:	4c 89 c9             	mov    %r9,%rcx
    4407:	48 89 df             	mov    %rbx,%rdi
    440a:	f2 ae                	repnz scas %es:(%rdi),%al
    440c:	48 f7 d1             	not    %rcx
    440f:	48 89 ce             	mov    %rcx,%rsi
    4412:	4c 89 c9             	mov    %r9,%rcx
    4415:	48 8b 3c 24          	mov    (%rsp),%rdi
    4419:	f2 ae                	repnz scas %es:(%rdi),%al
    441b:	49 89 c8             	mov    %rcx,%r8
    441e:	4c 89 c9             	mov    %r9,%rcx
    4421:	48 8b 7c 24 08       	mov    0x8(%rsp),%rdi
    4426:	f2 ae                	repnz scas %es:(%rdi),%al
    4428:	48 89 ca             	mov    %rcx,%rdx
    442b:	48 f7 d2             	not    %rdx
    442e:	4c 89 c9             	mov    %r9,%rcx
    4431:	48 8b 7c 24 10       	mov    0x10(%rsp),%rdi
    4436:	f2 ae                	repnz scas %es:(%rdi),%al
    4438:	4c 29 c2             	sub    %r8,%rdx
    443b:	48 29 ca             	sub    %rcx,%rdx
    443e:	48 8d 44 76 fd       	lea    -0x3(%rsi,%rsi,2),%rax
    4443:	48 8d 44 02 7b       	lea    0x7b(%rdx,%rax,1),%rax
    4448:	48 3d 00 20 00 00    	cmp    $0x2000,%rax
    444e:	0f 87 66 01 00 00    	ja     45ba <submitr+0x2b9>
    4454:	48 8d 94 24 50 40 00 	lea    0x4050(%rsp),%rdx
    445b:	00 
    445c:	b9 00 04 00 00       	mov    $0x400,%ecx
    4461:	b8 00 00 00 00       	mov    $0x0,%eax
    4466:	48 89 d7             	mov    %rdx,%rdi
    4469:	f3 48 ab             	rep stos %rax,%es:(%rdi)
    446c:	48 c7 c1 ff ff ff ff 	mov    $0xffffffffffffffff,%rcx
    4473:	48 89 df             	mov    %rbx,%rdi
    4476:	f2 ae                	repnz scas %es:(%rdi),%al
    4478:	48 f7 d1             	not    %rcx
    447b:	48 8d 41 ff          	lea    -0x1(%rcx),%rax
    447f:	83 f9 01             	cmp    $0x1,%ecx
    4482:	0f 84 84 06 00 00    	je     4b0c <submitr+0x80b>
    4488:	8d 40 ff             	lea    -0x1(%rax),%eax
    448b:	4c 8d 74 03 01       	lea    0x1(%rbx,%rax,1),%r14
    4490:	48 89 d5             	mov    %rdx,%rbp
    4493:	49 bd d9 ff 00 00 00 	movabs $0x2000000000ffd9,%r13
    449a:	00 20 00 
    449d:	e9 a6 01 00 00       	jmpq   4648 <submitr+0x347>
    44a2:	48 b8 45 72 72 6f 72 	movabs $0x43203a726f727245,%rax
    44a9:	3a 20 43 
    44ac:	48 ba 6c 69 65 6e 74 	movabs $0x6e7520746e65696c,%rdx
    44b3:	20 75 6e 
    44b6:	49 89 07             	mov    %rax,(%r15)
    44b9:	49 89 57 08          	mov    %rdx,0x8(%r15)
    44bd:	48 b8 61 62 6c 65 20 	movabs $0x206f7420656c6261,%rax
    44c4:	74 6f 20 
    44c7:	48 ba 63 72 65 61 74 	movabs $0x7320657461657263,%rdx
    44ce:	65 20 73 
    44d1:	49 89 47 10          	mov    %rax,0x10(%r15)
    44d5:	49 89 57 18          	mov    %rdx,0x18(%r15)
    44d9:	41 c7 47 20 6f 63 6b 	movl   $0x656b636f,0x20(%r15)
    44e0:	65 
    44e1:	66 41 c7 47 24 74 00 	movw   $0x74,0x24(%r15)
    44e8:	b8 ff ff ff ff       	mov    $0xffffffff,%eax
    44ed:	e9 92 04 00 00       	jmpq   4984 <submitr+0x683>
    44f2:	48 b8 45 72 72 6f 72 	movabs $0x44203a726f727245,%rax
    44f9:	3a 20 44 
    44fc:	48 ba 4e 53 20 69 73 	movabs $0x6e7520736920534e,%rdx
    4503:	20 75 6e 
    4506:	49 89 07             	mov    %rax,(%r15)
    4509:	49 89 57 08          	mov    %rdx,0x8(%r15)
    450d:	48 b8 61 62 6c 65 20 	movabs $0x206f7420656c6261,%rax
    4514:	74 6f 20 
    4517:	48 ba 72 65 73 6f 6c 	movabs $0x2065766c6f736572,%rdx
    451e:	76 65 20 
    4521:	49 89 47 10          	mov    %rax,0x10(%r15)
    4525:	49 89 57 18          	mov    %rdx,0x18(%r15)
    4529:	48 b8 73 65 72 76 65 	movabs $0x6120726576726573,%rax
    4530:	72 20 61 
    4533:	49 89 47 20          	mov    %rax,0x20(%r15)
    4537:	41 c7 47 28 64 64 72 	movl   $0x65726464,0x28(%r15)
    453e:	65 
    453f:	66 41 c7 47 2c 73 73 	movw   $0x7373,0x2c(%r15)
    4546:	41 c6 47 2e 00       	movb   $0x0,0x2e(%r15)
    454b:	44 89 e7             	mov    %r12d,%edi
    454e:	e8 3d ed ff ff       	callq  3290 <close@plt>
    4553:	b8 ff ff ff ff       	mov    $0xffffffff,%eax
    4558:	e9 27 04 00 00       	jmpq   4984 <submitr+0x683>
    455d:	48 b8 45 72 72 6f 72 	movabs $0x55203a726f727245,%rax
    4564:	3a 20 55 
    4567:	48 ba 6e 61 62 6c 65 	movabs $0x6f7420656c62616e,%rdx
    456e:	20 74 6f 
    4571:	49 89 07             	mov    %rax,(%r15)
    4574:	49 89 57 08          	mov    %rdx,0x8(%r15)
    4578:	48 b8 20 63 6f 6e 6e 	movabs $0x7463656e6e6f6320,%rax
    457f:	65 63 74 
    4582:	48 ba 20 74 6f 20 74 	movabs $0x20656874206f7420,%rdx
    4589:	68 65 20 
    458c:	49 89 47 10          	mov    %rax,0x10(%r15)
    4590:	49 89 57 18          	mov    %rdx,0x18(%r15)
    4594:	41 c7 47 20 73 65 72 	movl   $0x76726573,0x20(%r15)
    459b:	76 
    459c:	66 41 c7 47 24 65 72 	movw   $0x7265,0x24(%r15)
    45a3:	41 c6 47 26 00       	movb   $0x0,0x26(%r15)
    45a8:	44 89 e7             	mov    %r12d,%edi
    45ab:	e8 e0 ec ff ff       	callq  3290 <close@plt>
    45b0:	b8 ff ff ff ff       	mov    $0xffffffff,%eax
    45b5:	e9 ca 03 00 00       	jmpq   4984 <submitr+0x683>
    45ba:	48 b8 45 72 72 6f 72 	movabs $0x52203a726f727245,%rax
    45c1:	3a 20 52 
    45c4:	48 ba 65 73 75 6c 74 	movabs $0x747320746c757365,%rdx
    45cb:	20 73 74 
    45ce:	49 89 07             	mov    %rax,(%r15)
    45d1:	49 89 57 08          	mov    %rdx,0x8(%r15)
    45d5:	48 b8 72 69 6e 67 20 	movabs $0x6f6f7420676e6972,%rax
    45dc:	74 6f 6f 
    45df:	48 ba 20 6c 61 72 67 	movabs $0x202e656772616c20,%rdx
    45e6:	65 2e 20 
    45e9:	49 89 47 10          	mov    %rax,0x10(%r15)
    45ed:	49 89 57 18          	mov    %rdx,0x18(%r15)
    45f1:	48 b8 49 6e 63 72 65 	movabs $0x6573616572636e49,%rax
    45f8:	61 73 65 
    45fb:	48 ba 20 53 55 42 4d 	movabs $0x5254494d42555320,%rdx
    4602:	49 54 52 
    4605:	49 89 47 20          	mov    %rax,0x20(%r15)
    4609:	49 89 57 28          	mov    %rdx,0x28(%r15)
    460d:	48 b8 5f 4d 41 58 42 	movabs $0x46554258414d5f,%rax
    4614:	55 46 00 
    4617:	49 89 47 30          	mov    %rax,0x30(%r15)
    461b:	44 89 e7             	mov    %r12d,%edi
    461e:	e8 6d ec ff ff       	callq  3290 <close@plt>
    4623:	b8 ff ff ff ff       	mov    $0xffffffff,%eax
    4628:	e9 57 03 00 00       	jmpq   4984 <submitr+0x683>
    462d:	49 0f a3 c5          	bt     %rax,%r13
    4631:	73 21                	jae    4654 <submitr+0x353>
    4633:	44 88 45 00          	mov    %r8b,0x0(%rbp)
    4637:	48 8d 6d 01          	lea    0x1(%rbp),%rbp
    463b:	48 83 c3 01          	add    $0x1,%rbx
    463f:	4c 39 f3             	cmp    %r14,%rbx
    4642:	0f 84 c4 04 00 00    	je     4b0c <submitr+0x80b>
    4648:	44 0f b6 03          	movzbl (%rbx),%r8d
    464c:	41 8d 40 d6          	lea    -0x2a(%r8),%eax
    4650:	3c 35                	cmp    $0x35,%al
    4652:	76 d9                	jbe    462d <submitr+0x32c>
    4654:	44 89 c0             	mov    %r8d,%eax
    4657:	83 e0 df             	and    $0xffffffdf,%eax
    465a:	83 e8 41             	sub    $0x41,%eax
    465d:	3c 19                	cmp    $0x19,%al
    465f:	76 d2                	jbe    4633 <submitr+0x332>
    4661:	41 80 f8 20          	cmp    $0x20,%r8b
    4665:	74 63                	je     46ca <submitr+0x3c9>
    4667:	41 8d 40 e0          	lea    -0x20(%r8),%eax
    466b:	3c 5f                	cmp    $0x5f,%al
    466d:	76 0a                	jbe    4679 <submitr+0x378>
    466f:	41 80 f8 09          	cmp    $0x9,%r8b
    4673:	0f 85 06 04 00 00    	jne    4a7f <submitr+0x77e>
    4679:	48 8d bc 24 50 80 00 	lea    0x8050(%rsp),%rdi
    4680:	00 
    4681:	45 0f b6 c0          	movzbl %r8b,%r8d
    4685:	48 8d 0d ea 1a 00 00 	lea    0x1aea(%rip),%rcx        # 6176 <array.3483+0xf96>
    468c:	ba 08 00 00 00       	mov    $0x8,%edx
    4691:	be 01 00 00 00       	mov    $0x1,%esi
    4696:	b8 00 00 00 00       	mov    $0x0,%eax
    469b:	e8 00 ed ff ff       	callq  33a0 <__sprintf_chk@plt>
    46a0:	0f b6 84 24 50 80 00 	movzbl 0x8050(%rsp),%eax
    46a7:	00 
    46a8:	88 45 00             	mov    %al,0x0(%rbp)
    46ab:	0f b6 84 24 51 80 00 	movzbl 0x8051(%rsp),%eax
    46b2:	00 
    46b3:	88 45 01             	mov    %al,0x1(%rbp)
    46b6:	0f b6 84 24 52 80 00 	movzbl 0x8052(%rsp),%eax
    46bd:	00 
    46be:	88 45 02             	mov    %al,0x2(%rbp)
    46c1:	48 8d 6d 03          	lea    0x3(%rbp),%rbp
    46c5:	e9 71 ff ff ff       	jmpq   463b <submitr+0x33a>
    46ca:	c6 45 00 2b          	movb   $0x2b,0x0(%rbp)
    46ce:	48 8d 6d 01          	lea    0x1(%rbp),%rbp
    46d2:	e9 64 ff ff ff       	jmpq   463b <submitr+0x33a>
    46d7:	48 b8 45 72 72 6f 72 	movabs $0x47203a726f727245,%rax
    46de:	3a 20 47 
    46e1:	48 ba 45 54 20 72 65 	movabs $0x6575716572205445,%rdx
    46e8:	71 75 65 
    46eb:	49 89 07             	mov    %rax,(%r15)
    46ee:	49 89 57 08          	mov    %rdx,0x8(%r15)
    46f2:	48 b8 73 74 20 65 78 	movabs $0x6565637865207473,%rax
    46f9:	63 65 65 
    46fc:	48 ba 64 73 20 62 75 	movabs $0x6566667562207364,%rdx
    4703:	66 66 65 
    4706:	49 89 47 10          	mov    %rax,0x10(%r15)
    470a:	49 89 57 18          	mov    %rdx,0x18(%r15)
    470e:	41 c7 47 20 72 20 73 	movl   $0x69732072,0x20(%r15)
    4715:	69 
    4716:	66 41 c7 47 24 7a 65 	movw   $0x657a,0x24(%r15)
    471d:	41 c6 47 26 00       	movb   $0x0,0x26(%r15)
    4722:	44 89 e7             	mov    %r12d,%edi
    4725:	e8 66 eb ff ff       	callq  3290 <close@plt>
    472a:	b8 ff ff ff ff       	mov    $0xffffffff,%eax
    472f:	e9 50 02 00 00       	jmpq   4984 <submitr+0x683>
    4734:	48 01 c5             	add    %rax,%rbp
    4737:	48 29 c3             	sub    %rax,%rbx
    473a:	74 26                	je     4762 <submitr+0x461>
    473c:	48 89 da             	mov    %rbx,%rdx
    473f:	48 89 ee             	mov    %rbp,%rsi
    4742:	44 89 e7             	mov    %r12d,%edi
    4745:	e8 16 eb ff ff       	callq  3260 <write@plt>
    474a:	48 85 c0             	test   %rax,%rax
    474d:	7f e5                	jg     4734 <submitr+0x433>
    474f:	e8 dc ea ff ff       	callq  3230 <__errno_location@plt>
    4754:	83 38 04             	cmpl   $0x4,(%rax)
    4757:	0f 85 c3 02 00 00    	jne    4a20 <submitr+0x71f>
    475d:	4c 89 e8             	mov    %r13,%rax
    4760:	eb d2                	jmp    4734 <submitr+0x433>
    4762:	44 89 64 24 40       	mov    %r12d,0x40(%rsp)
    4767:	c7 44 24 44 00 00 00 	movl   $0x0,0x44(%rsp)
    476e:	00 
    476f:	48 8d 7c 24 40       	lea    0x40(%rsp),%rdi
    4774:	48 8d 44 24 50       	lea    0x50(%rsp),%rax
    4779:	48 89 44 24 48       	mov    %rax,0x48(%rsp)
    477e:	48 8d b4 24 50 20 00 	lea    0x2050(%rsp),%rsi
    4785:	00 
    4786:	ba 00 20 00 00       	mov    $0x2000,%edx
    478b:	e8 a8 fa ff ff       	callq  4238 <rio_readlineb>
    4790:	48 85 c0             	test   %rax,%rax
    4793:	0f 8e ec 00 00 00    	jle    4885 <submitr+0x584>
    4799:	48 8d 4c 24 2c       	lea    0x2c(%rsp),%rcx
    479e:	48 8d 94 24 50 60 00 	lea    0x6050(%rsp),%rdx
    47a5:	00 
    47a6:	48 8d bc 24 50 20 00 	lea    0x2050(%rsp),%rdi
    47ad:	00 
    47ae:	4c 8d 84 24 50 80 00 	lea    0x8050(%rsp),%r8
    47b5:	00 
    47b6:	48 8d 35 c0 19 00 00 	lea    0x19c0(%rip),%rsi        # 617d <array.3483+0xf9d>
    47bd:	b8 00 00 00 00       	mov    $0x0,%eax
    47c2:	e8 49 eb ff ff       	callq  3310 <__isoc99_sscanf@plt>
    47c7:	44 8b 44 24 2c       	mov    0x2c(%rsp),%r8d
    47cc:	41 81 f8 c8 00 00 00 	cmp    $0xc8,%r8d
    47d3:	0f 85 20 01 00 00    	jne    48f9 <submitr+0x5f8>
    47d9:	48 8d 1d ae 19 00 00 	lea    0x19ae(%rip),%rbx        # 618e <array.3483+0xfae>
    47e0:	48 8d b4 24 50 20 00 	lea    0x2050(%rsp),%rsi
    47e7:	00 
    47e8:	b9 03 00 00 00       	mov    $0x3,%ecx
    47ed:	48 89 df             	mov    %rbx,%rdi
    47f0:	f3 a6                	repz cmpsb %es:(%rdi),%ds:(%rsi)
    47f2:	0f 97 c0             	seta   %al
    47f5:	1c 00                	sbb    $0x0,%al
    47f7:	84 c0                	test   %al,%al
    47f9:	0f 84 31 01 00 00    	je     4930 <submitr+0x62f>
    47ff:	48 8d b4 24 50 20 00 	lea    0x2050(%rsp),%rsi
    4806:	00 
    4807:	48 8d 7c 24 40       	lea    0x40(%rsp),%rdi
    480c:	ba 00 20 00 00       	mov    $0x2000,%edx
    4811:	e8 22 fa ff ff       	callq  4238 <rio_readlineb>
    4816:	48 85 c0             	test   %rax,%rax
    4819:	7f c5                	jg     47e0 <submitr+0x4df>
    481b:	48 b8 45 72 72 6f 72 	movabs $0x43203a726f727245,%rax
    4822:	3a 20 43 
    4825:	48 ba 6c 69 65 6e 74 	movabs $0x6e7520746e65696c,%rdx
    482c:	20 75 6e 
    482f:	49 89 07             	mov    %rax,(%r15)
    4832:	49 89 57 08          	mov    %rdx,0x8(%r15)
    4836:	48 b8 61 62 6c 65 20 	movabs $0x206f7420656c6261,%rax
    483d:	74 6f 20 
    4840:	48 ba 72 65 61 64 20 	movabs $0x6165682064616572,%rdx
    4847:	68 65 61 
    484a:	49 89 47 10          	mov    %rax,0x10(%r15)
    484e:	49 89 57 18          	mov    %rdx,0x18(%r15)
    4852:	48 b8 64 65 72 73 20 	movabs $0x6f72662073726564,%rax
    4859:	66 72 6f 
    485c:	48 ba 6d 20 73 65 72 	movabs $0x726576726573206d,%rdx
    4863:	76 65 72 
    4866:	49 89 47 20          	mov    %rax,0x20(%r15)
    486a:	49 89 57 28          	mov    %rdx,0x28(%r15)
    486e:	41 c6 47 30 00       	movb   $0x0,0x30(%r15)
    4873:	44 89 e7             	mov    %r12d,%edi
    4876:	e8 15 ea ff ff       	callq  3290 <close@plt>
    487b:	b8 ff ff ff ff       	mov    $0xffffffff,%eax
    4880:	e9 ff 00 00 00       	jmpq   4984 <submitr+0x683>
    4885:	48 b8 45 72 72 6f 72 	movabs $0x43203a726f727245,%rax
    488c:	3a 20 43 
    488f:	48 ba 6c 69 65 6e 74 	movabs $0x6e7520746e65696c,%rdx
    4896:	20 75 6e 
    4899:	49 89 07             	mov    %rax,(%r15)
    489c:	49 89 57 08          	mov    %rdx,0x8(%r15)
    48a0:	48 b8 61 62 6c 65 20 	movabs $0x206f7420656c6261,%rax
    48a7:	74 6f 20 
    48aa:	48 ba 72 65 61 64 20 	movabs $0x7269662064616572,%rdx
    48b1:	66 69 72 
    48b4:	49 89 47 10          	mov    %rax,0x10(%r15)
    48b8:	49 89 57 18          	mov    %rdx,0x18(%r15)
    48bc:	48 b8 73 74 20 68 65 	movabs $0x6564616568207473,%rax
    48c3:	61 64 65 
    48c6:	48 ba 72 20 66 72 6f 	movabs $0x73206d6f72662072,%rdx
    48cd:	6d 20 73 
    48d0:	49 89 47 20          	mov    %rax,0x20(%r15)
    48d4:	49 89 57 28          	mov    %rdx,0x28(%r15)
    48d8:	41 c7 47 30 65 72 76 	movl   $0x65767265,0x30(%r15)
    48df:	65 
    48e0:	66 41 c7 47 34 72 00 	movw   $0x72,0x34(%r15)
    48e7:	44 89 e7             	mov    %r12d,%edi
    48ea:	e8 a1 e9 ff ff       	callq  3290 <close@plt>
    48ef:	b8 ff ff ff ff       	mov    $0xffffffff,%eax
    48f4:	e9 8b 00 00 00       	jmpq   4984 <submitr+0x683>
    48f9:	4c 8d 8c 24 50 80 00 	lea    0x8050(%rsp),%r9
    4900:	00 
    4901:	48 8d 0d c0 17 00 00 	lea    0x17c0(%rip),%rcx        # 60c8 <array.3483+0xee8>
    4908:	48 c7 c2 ff ff ff ff 	mov    $0xffffffffffffffff,%rdx
    490f:	be 01 00 00 00       	mov    $0x1,%esi
    4914:	4c 89 ff             	mov    %r15,%rdi
    4917:	b8 00 00 00 00       	mov    $0x0,%eax
    491c:	e8 7f ea ff ff       	callq  33a0 <__sprintf_chk@plt>
    4921:	44 89 e7             	mov    %r12d,%edi
    4924:	e8 67 e9 ff ff       	callq  3290 <close@plt>
    4929:	b8 ff ff ff ff       	mov    $0xffffffff,%eax
    492e:	eb 54                	jmp    4984 <submitr+0x683>
    4930:	48 8d b4 24 50 20 00 	lea    0x2050(%rsp),%rsi
    4937:	00 
    4938:	48 8d 7c 24 40       	lea    0x40(%rsp),%rdi
    493d:	ba 00 20 00 00       	mov    $0x2000,%edx
    4942:	e8 f1 f8 ff ff       	callq  4238 <rio_readlineb>
    4947:	48 85 c0             	test   %rax,%rax
    494a:	7e 61                	jle    49ad <submitr+0x6ac>
    494c:	48 8d b4 24 50 20 00 	lea    0x2050(%rsp),%rsi
    4953:	00 
    4954:	4c 89 ff             	mov    %r15,%rdi
    4957:	e8 e4 e8 ff ff       	callq  3240 <strcpy@plt>
    495c:	44 89 e7             	mov    %r12d,%edi
    495f:	e8 2c e9 ff ff       	callq  3290 <close@plt>
    4964:	b9 03 00 00 00       	mov    $0x3,%ecx
    4969:	48 8d 3d 21 18 00 00 	lea    0x1821(%rip),%rdi        # 6191 <array.3483+0xfb1>
    4970:	4c 89 fe             	mov    %r15,%rsi
    4973:	f3 a6                	repz cmpsb %es:(%rdi),%ds:(%rsi)
    4975:	0f 97 c0             	seta   %al
    4978:	1c 00                	sbb    $0x0,%al
    497a:	84 c0                	test   %al,%al
    497c:	0f 95 c0             	setne  %al
    497f:	0f b6 c0             	movzbl %al,%eax
    4982:	f7 d8                	neg    %eax
    4984:	48 8b 94 24 58 a0 00 	mov    0xa058(%rsp),%rdx
    498b:	00 
    498c:	64 48 33 14 25 28 00 	xor    %fs:0x28,%rdx
    4993:	00 00 
    4995:	0f 85 fb 01 00 00    	jne    4b96 <submitr+0x895>
    499b:	48 81 c4 68 a0 00 00 	add    $0xa068,%rsp
    49a2:	5b                   	pop    %rbx
    49a3:	5d                   	pop    %rbp
    49a4:	41 5c                	pop    %r12
    49a6:	41 5d                	pop    %r13
    49a8:	41 5e                	pop    %r14
    49aa:	41 5f                	pop    %r15
    49ac:	c3                   	retq   
    49ad:	48 b8 45 72 72 6f 72 	movabs $0x43203a726f727245,%rax
    49b4:	3a 20 43 
    49b7:	48 ba 6c 69 65 6e 74 	movabs $0x6e7520746e65696c,%rdx
    49be:	20 75 6e 
    49c1:	49 89 07             	mov    %rax,(%r15)
    49c4:	49 89 57 08          	mov    %rdx,0x8(%r15)
    49c8:	48 b8 61 62 6c 65 20 	movabs $0x206f7420656c6261,%rax
    49cf:	74 6f 20 
    49d2:	48 ba 72 65 61 64 20 	movabs $0x6174732064616572,%rdx
    49d9:	73 74 61 
    49dc:	49 89 47 10          	mov    %rax,0x10(%r15)
    49e0:	49 89 57 18          	mov    %rdx,0x18(%r15)
    49e4:	48 b8 74 75 73 20 6d 	movabs $0x7373656d20737574,%rax
    49eb:	65 73 73 
    49ee:	48 ba 61 67 65 20 66 	movabs $0x6d6f726620656761,%rdx
    49f5:	72 6f 6d 
    49f8:	49 89 47 20          	mov    %rax,0x20(%r15)
    49fc:	49 89 57 28          	mov    %rdx,0x28(%r15)
    4a00:	48 b8 20 73 65 72 76 	movabs $0x72657672657320,%rax
    4a07:	65 72 00 
    4a0a:	49 89 47 30          	mov    %rax,0x30(%r15)
    4a0e:	44 89 e7             	mov    %r12d,%edi
    4a11:	e8 7a e8 ff ff       	callq  3290 <close@plt>
    4a16:	b8 ff ff ff ff       	mov    $0xffffffff,%eax
    4a1b:	e9 64 ff ff ff       	jmpq   4984 <submitr+0x683>
    4a20:	48 b8 45 72 72 6f 72 	movabs $0x43203a726f727245,%rax
    4a27:	3a 20 43 
    4a2a:	48 ba 6c 69 65 6e 74 	movabs $0x6e7520746e65696c,%rdx
    4a31:	20 75 6e 
    4a34:	49 89 07             	mov    %rax,(%r15)
    4a37:	49 89 57 08          	mov    %rdx,0x8(%r15)
    4a3b:	48 b8 61 62 6c 65 20 	movabs $0x206f7420656c6261,%rax
    4a42:	74 6f 20 
    4a45:	48 ba 77 72 69 74 65 	movabs $0x6f74206574697277,%rdx
    4a4c:	20 74 6f 
    4a4f:	49 89 47 10          	mov    %rax,0x10(%r15)
    4a53:	49 89 57 18          	mov    %rdx,0x18(%r15)
    4a57:	48 b8 20 74 68 65 20 	movabs $0x7265732065687420,%rax
    4a5e:	73 65 72 
    4a61:	49 89 47 20          	mov    %rax,0x20(%r15)
    4a65:	41 c7 47 28 76 65 72 	movl   $0x726576,0x28(%r15)
    4a6c:	00 
    4a6d:	44 89 e7             	mov    %r12d,%edi
    4a70:	e8 1b e8 ff ff       	callq  3290 <close@plt>
    4a75:	b8 ff ff ff ff       	mov    $0xffffffff,%eax
    4a7a:	e9 05 ff ff ff       	jmpq   4984 <submitr+0x683>
    4a7f:	48 b8 45 72 72 6f 72 	movabs $0x52203a726f727245,%rax
    4a86:	3a 20 52 
    4a89:	48 ba 65 73 75 6c 74 	movabs $0x747320746c757365,%rdx
    4a90:	20 73 74 
    4a93:	49 89 07             	mov    %rax,(%r15)
    4a96:	49 89 57 08          	mov    %rdx,0x8(%r15)
    4a9a:	48 b8 72 69 6e 67 20 	movabs $0x6e6f6320676e6972,%rax
    4aa1:	63 6f 6e 
    4aa4:	48 ba 74 61 69 6e 73 	movabs $0x6e6120736e696174,%rdx
    4aab:	20 61 6e 
    4aae:	49 89 47 10          	mov    %rax,0x10(%r15)
    4ab2:	49 89 57 18          	mov    %rdx,0x18(%r15)
    4ab6:	48 b8 20 69 6c 6c 65 	movabs $0x6c6167656c6c6920,%rax
    4abd:	67 61 6c 
    4ac0:	48 ba 20 6f 72 20 75 	movabs $0x72706e7520726f20,%rdx
    4ac7:	6e 70 72 
    4aca:	49 89 47 20          	mov    %rax,0x20(%r15)
    4ace:	49 89 57 28          	mov    %rdx,0x28(%r15)
    4ad2:	48 b8 69 6e 74 61 62 	movabs $0x20656c6261746e69,%rax
    4ad9:	6c 65 20 
    4adc:	48 ba 63 68 61 72 61 	movabs $0x6574636172616863,%rdx
    4ae3:	63 74 65 
    4ae6:	49 89 47 30          	mov    %rax,0x30(%r15)
    4aea:	49 89 57 38          	mov    %rdx,0x38(%r15)
    4aee:	66 41 c7 47 40 72 2e 	movw   $0x2e72,0x40(%r15)
    4af5:	41 c6 47 42 00       	movb   $0x0,0x42(%r15)
    4afa:	44 89 e7             	mov    %r12d,%edi
    4afd:	e8 8e e7 ff ff       	callq  3290 <close@plt>
    4b02:	b8 ff ff ff ff       	mov    $0xffffffff,%eax
    4b07:	e9 78 fe ff ff       	jmpq   4984 <submitr+0x683>
    4b0c:	48 8d bc 24 50 20 00 	lea    0x2050(%rsp),%rdi
    4b13:	00 
    4b14:	48 8d 84 24 50 40 00 	lea    0x4050(%rsp),%rax
    4b1b:	00 
    4b1c:	50                   	push   %rax
    4b1d:	ff 74 24 18          	pushq  0x18(%rsp)
    4b21:	ff 74 24 28          	pushq  0x28(%rsp)
    4b25:	ff 74 24 20          	pushq  0x20(%rsp)
    4b29:	4c 8b 4c 24 20       	mov    0x20(%rsp),%r9
    4b2e:	4c 8d 05 c3 15 00 00 	lea    0x15c3(%rip),%r8        # 60f8 <array.3483+0xf18>
    4b35:	b9 00 20 00 00       	mov    $0x2000,%ecx
    4b3a:	ba 01 00 00 00       	mov    $0x1,%edx
    4b3f:	be 00 20 00 00       	mov    $0x2000,%esi
    4b44:	b8 00 00 00 00       	mov    $0x0,%eax
    4b49:	e8 c2 e6 ff ff       	callq  3210 <__snprintf_chk@plt>
    4b4e:	48 83 c4 20          	add    $0x20,%rsp
    4b52:	3d ff 1f 00 00       	cmp    $0x1fff,%eax
    4b57:	0f 8f 7a fb ff ff    	jg     46d7 <submitr+0x3d6>
    4b5d:	48 8d bc 24 50 20 00 	lea    0x2050(%rsp),%rdi
    4b64:	00 
    4b65:	48 c7 c1 ff ff ff ff 	mov    $0xffffffffffffffff,%rcx
    4b6c:	b8 00 00 00 00       	mov    $0x0,%eax
    4b71:	f2 ae                	repnz scas %es:(%rdi),%al
    4b73:	48 f7 d1             	not    %rcx
    4b76:	48 89 cb             	mov    %rcx,%rbx
    4b79:	48 83 eb 01          	sub    $0x1,%rbx
    4b7d:	0f 84 df fb ff ff    	je     4762 <submitr+0x461>
    4b83:	48 8d ac 24 50 20 00 	lea    0x2050(%rsp),%rbp
    4b8a:	00 
    4b8b:	41 bd 00 00 00 00    	mov    $0x0,%r13d
    4b91:	e9 a6 fb ff ff       	jmpq   473c <submitr+0x43b>
    4b96:	e8 d5 e6 ff ff       	callq  3270 <__stack_chk_fail@plt>

0000000000004b9b <init_timeout>:
    4b9b:	f3 0f 1e fa          	endbr64 
    4b9f:	85 ff                	test   %edi,%edi
    4ba1:	75 01                	jne    4ba4 <init_timeout+0x9>
    4ba3:	c3                   	retq   
    4ba4:	53                   	push   %rbx
    4ba5:	89 fb                	mov    %edi,%ebx
    4ba7:	48 8d 35 54 f6 ff ff 	lea    -0x9ac(%rip),%rsi        # 4202 <sigalrm_handler>
    4bae:	bf 0e 00 00 00       	mov    $0xe,%edi
    4bb3:	e8 08 e7 ff ff       	callq  32c0 <signal@plt>
    4bb8:	85 db                	test   %ebx,%ebx
    4bba:	bf 00 00 00 00       	mov    $0x0,%edi
    4bbf:	0f 49 fb             	cmovns %ebx,%edi
    4bc2:	e8 b9 e6 ff ff       	callq  3280 <alarm@plt>
    4bc7:	5b                   	pop    %rbx
    4bc8:	c3                   	retq   

0000000000004bc9 <init_driver>:
    4bc9:	f3 0f 1e fa          	endbr64 
    4bcd:	41 54                	push   %r12
    4bcf:	55                   	push   %rbp
    4bd0:	53                   	push   %rbx
    4bd1:	48 83 ec 20          	sub    $0x20,%rsp
    4bd5:	48 89 fd             	mov    %rdi,%rbp
    4bd8:	64 48 8b 04 25 28 00 	mov    %fs:0x28,%rax
    4bdf:	00 00 
    4be1:	48 89 44 24 18       	mov    %rax,0x18(%rsp)
    4be6:	31 c0                	xor    %eax,%eax
    4be8:	be 01 00 00 00       	mov    $0x1,%esi
    4bed:	bf 0d 00 00 00       	mov    $0xd,%edi
    4bf2:	e8 c9 e6 ff ff       	callq  32c0 <signal@plt>
    4bf7:	be 01 00 00 00       	mov    $0x1,%esi
    4bfc:	bf 1d 00 00 00       	mov    $0x1d,%edi
    4c01:	e8 ba e6 ff ff       	callq  32c0 <signal@plt>
    4c06:	be 01 00 00 00       	mov    $0x1,%esi
    4c0b:	bf 1d 00 00 00       	mov    $0x1d,%edi
    4c10:	e8 ab e6 ff ff       	callq  32c0 <signal@plt>
    4c15:	ba 00 00 00 00       	mov    $0x0,%edx
    4c1a:	be 01 00 00 00       	mov    $0x1,%esi
    4c1f:	bf 02 00 00 00       	mov    $0x2,%edi
    4c24:	e8 87 e7 ff ff       	callq  33b0 <socket@plt>
    4c29:	85 c0                	test   %eax,%eax
    4c2b:	0f 88 9c 00 00 00    	js     4ccd <init_driver+0x104>
    4c31:	89 c3                	mov    %eax,%ebx
    4c33:	48 8d 3d 5a 15 00 00 	lea    0x155a(%rip),%rdi        # 6194 <array.3483+0xfb4>
    4c3a:	e8 91 e6 ff ff       	callq  32d0 <gethostbyname@plt>
    4c3f:	48 85 c0             	test   %rax,%rax
    4c42:	0f 84 d1 00 00 00    	je     4d19 <init_driver+0x150>
    4c48:	49 89 e4             	mov    %rsp,%r12
    4c4b:	48 c7 04 24 00 00 00 	movq   $0x0,(%rsp)
    4c52:	00 
    4c53:	48 c7 44 24 08 00 00 	movq   $0x0,0x8(%rsp)
    4c5a:	00 00 
    4c5c:	66 c7 04 24 02 00    	movw   $0x2,(%rsp)
    4c62:	48 63 50 14          	movslq 0x14(%rax),%rdx
    4c66:	48 8b 40 18          	mov    0x18(%rax),%rax
    4c6a:	48 8d 7c 24 04       	lea    0x4(%rsp),%rdi
    4c6f:	b9 0c 00 00 00       	mov    $0xc,%ecx
    4c74:	48 8b 30             	mov    (%rax),%rsi
    4c77:	e8 64 e6 ff ff       	callq  32e0 <__memmove_chk@plt>
    4c7c:	66 c7 44 24 02 3b 6e 	movw   $0x6e3b,0x2(%rsp)
    4c83:	ba 10 00 00 00       	mov    $0x10,%edx
    4c88:	4c 89 e6             	mov    %r12,%rsi
    4c8b:	89 df                	mov    %ebx,%edi
    4c8d:	e8 ce e6 ff ff       	callq  3360 <connect@plt>
    4c92:	85 c0                	test   %eax,%eax
    4c94:	0f 88 e7 00 00 00    	js     4d81 <init_driver+0x1b8>
    4c9a:	89 df                	mov    %ebx,%edi
    4c9c:	e8 ef e5 ff ff       	callq  3290 <close@plt>
    4ca1:	66 c7 45 00 4f 4b    	movw   $0x4b4f,0x0(%rbp)
    4ca7:	c6 45 02 00          	movb   $0x0,0x2(%rbp)
    4cab:	b8 00 00 00 00       	mov    $0x0,%eax
    4cb0:	48 8b 4c 24 18       	mov    0x18(%rsp),%rcx
    4cb5:	64 48 33 0c 25 28 00 	xor    %fs:0x28,%rcx
    4cbc:	00 00 
    4cbe:	0f 85 f5 00 00 00    	jne    4db9 <init_driver+0x1f0>
    4cc4:	48 83 c4 20          	add    $0x20,%rsp
    4cc8:	5b                   	pop    %rbx
    4cc9:	5d                   	pop    %rbp
    4cca:	41 5c                	pop    %r12
    4ccc:	c3                   	retq   
    4ccd:	48 b8 45 72 72 6f 72 	movabs $0x43203a726f727245,%rax
    4cd4:	3a 20 43 
    4cd7:	48 ba 6c 69 65 6e 74 	movabs $0x6e7520746e65696c,%rdx
    4cde:	20 75 6e 
    4ce1:	48 89 45 00          	mov    %rax,0x0(%rbp)
    4ce5:	48 89 55 08          	mov    %rdx,0x8(%rbp)
    4ce9:	48 b8 61 62 6c 65 20 	movabs $0x206f7420656c6261,%rax
    4cf0:	74 6f 20 
    4cf3:	48 ba 63 72 65 61 74 	movabs $0x7320657461657263,%rdx
    4cfa:	65 20 73 
    4cfd:	48 89 45 10          	mov    %rax,0x10(%rbp)
    4d01:	48 89 55 18          	mov    %rdx,0x18(%rbp)
    4d05:	c7 45 20 6f 63 6b 65 	movl   $0x656b636f,0x20(%rbp)
    4d0c:	66 c7 45 24 74 00    	movw   $0x74,0x24(%rbp)
    4d12:	b8 ff ff ff ff       	mov    $0xffffffff,%eax
    4d17:	eb 97                	jmp    4cb0 <init_driver+0xe7>
    4d19:	48 b8 45 72 72 6f 72 	movabs $0x44203a726f727245,%rax
    4d20:	3a 20 44 
    4d23:	48 ba 4e 53 20 69 73 	movabs $0x6e7520736920534e,%rdx
    4d2a:	20 75 6e 
    4d2d:	48 89 45 00          	mov    %rax,0x0(%rbp)
    4d31:	48 89 55 08          	mov    %rdx,0x8(%rbp)
    4d35:	48 b8 61 62 6c 65 20 	movabs $0x206f7420656c6261,%rax
    4d3c:	74 6f 20 
    4d3f:	48 ba 72 65 73 6f 6c 	movabs $0x2065766c6f736572,%rdx
    4d46:	76 65 20 
    4d49:	48 89 45 10          	mov    %rax,0x10(%rbp)
    4d4d:	48 89 55 18          	mov    %rdx,0x18(%rbp)
    4d51:	48 b8 73 65 72 76 65 	movabs $0x6120726576726573,%rax
    4d58:	72 20 61 
    4d5b:	48 89 45 20          	mov    %rax,0x20(%rbp)
    4d5f:	c7 45 28 64 64 72 65 	movl   $0x65726464,0x28(%rbp)
    4d66:	66 c7 45 2c 73 73    	movw   $0x7373,0x2c(%rbp)
    4d6c:	c6 45 2e 00          	movb   $0x0,0x2e(%rbp)
    4d70:	89 df                	mov    %ebx,%edi
    4d72:	e8 19 e5 ff ff       	callq  3290 <close@plt>
    4d77:	b8 ff ff ff ff       	mov    $0xffffffff,%eax
    4d7c:	e9 2f ff ff ff       	jmpq   4cb0 <init_driver+0xe7>
    4d81:	4c 8d 05 0c 14 00 00 	lea    0x140c(%rip),%r8        # 6194 <array.3483+0xfb4>
    4d88:	48 8d 0d c1 13 00 00 	lea    0x13c1(%rip),%rcx        # 6150 <array.3483+0xf70>
    4d8f:	48 c7 c2 ff ff ff ff 	mov    $0xffffffffffffffff,%rdx
    4d96:	be 01 00 00 00       	mov    $0x1,%esi
    4d9b:	48 89 ef             	mov    %rbp,%rdi
    4d9e:	b8 00 00 00 00       	mov    $0x0,%eax
    4da3:	e8 f8 e5 ff ff       	callq  33a0 <__sprintf_chk@plt>
    4da8:	89 df                	mov    %ebx,%edi
    4daa:	e8 e1 e4 ff ff       	callq  3290 <close@plt>
    4daf:	b8 ff ff ff ff       	mov    $0xffffffff,%eax
    4db4:	e9 f7 fe ff ff       	jmpq   4cb0 <init_driver+0xe7>
    4db9:	e8 b2 e4 ff ff       	callq  3270 <__stack_chk_fail@plt>

0000000000004dbe <driver_post>:
    4dbe:	f3 0f 1e fa          	endbr64 
    4dc2:	53                   	push   %rbx
    4dc3:	4c 89 c3             	mov    %r8,%rbx
    4dc6:	85 c9                	test   %ecx,%ecx
    4dc8:	75 17                	jne    4de1 <driver_post+0x23>
    4dca:	48 85 ff             	test   %rdi,%rdi
    4dcd:	74 05                	je     4dd4 <driver_post+0x16>
    4dcf:	80 3f 00             	cmpb   $0x0,(%rdi)
    4dd2:	75 33                	jne    4e07 <driver_post+0x49>
    4dd4:	66 c7 03 4f 4b       	movw   $0x4b4f,(%rbx)
    4dd9:	c6 43 02 00          	movb   $0x0,0x2(%rbx)
    4ddd:	89 c8                	mov    %ecx,%eax
    4ddf:	5b                   	pop    %rbx
    4de0:	c3                   	retq   
    4de1:	48 8d 35 c7 13 00 00 	lea    0x13c7(%rip),%rsi        # 61af <array.3483+0xfcf>
    4de8:	bf 01 00 00 00       	mov    $0x1,%edi
    4ded:	b8 00 00 00 00       	mov    $0x0,%eax
    4df2:	e8 29 e5 ff ff       	callq  3320 <__printf_chk@plt>
    4df7:	66 c7 03 4f 4b       	movw   $0x4b4f,(%rbx)
    4dfc:	c6 43 02 00          	movb   $0x0,0x2(%rbx)
    4e00:	b8 00 00 00 00       	mov    $0x0,%eax
    4e05:	eb d8                	jmp    4ddf <driver_post+0x21>
    4e07:	41 50                	push   %r8
    4e09:	52                   	push   %rdx
    4e0a:	4c 8d 0d b5 13 00 00 	lea    0x13b5(%rip),%r9        # 61c6 <array.3483+0xfe6>
    4e11:	49 89 f0             	mov    %rsi,%r8
    4e14:	48 89 f9             	mov    %rdi,%rcx
    4e17:	48 8d 15 ac 13 00 00 	lea    0x13ac(%rip),%rdx        # 61ca <array.3483+0xfea>
    4e1e:	be 6e 3b 00 00       	mov    $0x3b6e,%esi
    4e23:	48 8d 3d 6a 13 00 00 	lea    0x136a(%rip),%rdi        # 6194 <array.3483+0xfb4>
    4e2a:	e8 d2 f4 ff ff       	callq  4301 <submitr>
    4e2f:	48 83 c4 10          	add    $0x10,%rsp
    4e33:	eb aa                	jmp    4ddf <driver_post+0x21>
    4e35:	66 2e 0f 1f 84 00 00 	nopw   %cs:0x0(%rax,%rax,1)
    4e3c:	00 00 00 
    4e3f:	90                   	nop

0000000000004e40 <__libc_csu_init>:
    4e40:	f3 0f 1e fa          	endbr64 
    4e44:	41 57                	push   %r15
    4e46:	4c 8d 3d 93 2e 00 00 	lea    0x2e93(%rip),%r15        # 7ce0 <__frame_dummy_init_array_entry>
    4e4d:	41 56                	push   %r14
    4e4f:	49 89 d6             	mov    %rdx,%r14
    4e52:	41 55                	push   %r13
    4e54:	49 89 f5             	mov    %rsi,%r13
    4e57:	41 54                	push   %r12
    4e59:	41 89 fc             	mov    %edi,%r12d
    4e5c:	55                   	push   %rbp
    4e5d:	48 8d 2d 84 2e 00 00 	lea    0x2e84(%rip),%rbp        # 7ce8 <__do_global_dtors_aux_fini_array_entry>
    4e64:	53                   	push   %rbx
    4e65:	4c 29 fd             	sub    %r15,%rbp
    4e68:	48 83 ec 08          	sub    $0x8,%rsp
    4e6c:	e8 8f e1 ff ff       	callq  3000 <_init>
    4e71:	48 c1 fd 03          	sar    $0x3,%rbp
    4e75:	74 1f                	je     4e96 <__libc_csu_init+0x56>
    4e77:	31 db                	xor    %ebx,%ebx
    4e79:	0f 1f 80 00 00 00 00 	nopl   0x0(%rax)
    4e80:	4c 89 f2             	mov    %r14,%rdx
    4e83:	4c 89 ee             	mov    %r13,%rsi
    4e86:	44 89 e7             	mov    %r12d,%edi
    4e89:	41 ff 14 df          	callq  *(%r15,%rbx,8)
    4e8d:	48 83 c3 01          	add    $0x1,%rbx
    4e91:	48 39 dd             	cmp    %rbx,%rbp
    4e94:	75 ea                	jne    4e80 <__libc_csu_init+0x40>
    4e96:	48 83 c4 08          	add    $0x8,%rsp
    4e9a:	5b                   	pop    %rbx
    4e9b:	5d                   	pop    %rbp
    4e9c:	41 5c                	pop    %r12
    4e9e:	41 5d                	pop    %r13
    4ea0:	41 5e                	pop    %r14
    4ea2:	41 5f                	pop    %r15
    4ea4:	c3                   	retq   
    4ea5:	66 66 2e 0f 1f 84 00 	data16 nopw %cs:0x0(%rax,%rax,1)
    4eac:	00 00 00 00 

0000000000004eb0 <__libc_csu_fini>:
    4eb0:	f3 0f 1e fa          	endbr64 
    4eb4:	c3                   	retq   

Disassembly of section .fini:

0000000000004eb8 <_fini>:
    4eb8:	f3 0f 1e fa          	endbr64 
    4ebc:	48 83 ec 08          	sub    $0x8,%rsp
    4ec0:	48 83 c4 08          	add    $0x8,%rsp
    4ec4:	c3                   	retq   
